(lp0
(ifish
Fish
p1
(dp2
S'latin'
p3
S'piscis maximus'
p4
sS'family'
p5
V\u9b5a\u79d1
p6
sS'image'
p7
S'static/low-res/ichiran/.jpg'
p8
sS'rarity'
p9
I4
sS'kana'
p10
V\u30a2\u30d9\u30cf\u30bc
p11
sS'link'
p12
S'sakana/'
p13
sS'location'
p14
(ifish
Location
p15
(dp16
S'_dict'
p17
(dp18
S'Takatsu'
p19
c__builtin__
set
p20
((lp21
I0
aI1
aI2
atp22
Rp23
sS'Masuda'
p24
g20
((lp25
I0
aI2
aI3
atp26
Rp27
ssbsS'romaji'
p28
S'abehaze'
p29
sS'genus'
p30
V\u9b5a\u65cf
p31
sba(ifish
Fish
p32
(dp33
g3
g4
sg5
g6
sg7
S'static/low-res/ichiran/.jpg'
p34
sg9
I3
sg10
V\u30a2\u30d6\u30e9\u30dc\u30c6
p35
sg12
g13
sg14
g15
sg28
S'aburabote'
p36
sg30
g31
sba(ifish
Fish
p37
(dp38
g3
g4
sg5
g6
sg7
S'static/low-res/ichiran/.jpg'
p39
sg9
I2
sg10
V\u30a2\u30ab\u30b6
p40
sg12
g13
sg14
g15
sg28
S'akaza'
p41
sg30
g31
sba(ifish
Fish
p42
(dp43
g3
g4
sg5
g6
sg7
S'static/low-res/ichiran/amago.jpg'
p44
sg9
I3
sg10
V\u30a2\u30de\u30b4
p45
sg12
S'sakana/amago'
p46
sg14
g15
sg28
S'amago'
p47
sg30
g31
sba(ifish
Fish
p48
(dp49
g3
g4
sg5
g6
sg7
S'static/low-res/ichiran/ayu.jpg'
p50
sg9
I3
sg10
V\u30a2\u30e6
p51
sg12
S'sakana/ayu'
p52
sg14
g15
sg28
S'ayu'
p53
sg30
g31
sba(ifish
Fish
p54
(dp55
g3
g4
sg5
g6
sg7
S'static/low-res/ichiran/ayukake.jpg'
p56
sg9
I3
sg10
V\u30a2\u30e6\u30ab\u30b1
p57
sg12
S'sakana/ayukake'
p58
sg14
g15
sg28
S'ayukake'
p59
sg30
g31
sba(ifish
Fish
p60
(dp61
g3
g4
sg5
g6
sg7
S'static/low-res/ichiran/bora.jpg'
p62
sg9
I3
sg10
V\u30dc\u30e9
p63
sg12
S'sakana/bora'
p64
sg14
g15
sg28
S'bora'
p65
sg30
g31
sba(ifish
Fish
p66
(dp67
g3
g4
sg5
g6
sg7
S'static/low-res/ichiran/dojou.jpg'
p68
sg9
I3
sg10
V\u30c9\u30b8\u30e7\u30a6
p69
sg12
S'sakana/dojou'
p70
sg14
g15
sg28
S'dojou'
p71
sg30
g31
sba(ifish
Fish
p72
(dp73
g3
g4
sg5
g6
sg7
S'static/low-res/ichiran/donnko.jpg'
p74
sg9
I3
sg10
V\u30c9\u30f3\u30b3
p75
sg12
S'sakana/donnko'
p76
sg14
g15
sg28
S'donnko'
p77
sg30
g31
sba(ifish
Fish
p78
(dp79
g3
g4
sg5
g6
sg7
S'static/low-res/ichiran/gigi.jpg'
p80
sg9
I3
sg10
V\u30ae\u30ae
p81
sg12
S'sakana/gigi'
p82
sg14
g15
sg28
S'gigi'
p83
sg30
g31
sba(ifish
Fish
p84
(dp85
g3
g4
sg5
g6
sg7
S'static/low-res/ichiran/gogi.jpg'
p86
sg9
I3
sg10
V\u30b4\u30ae
p87
sg12
S'sakana/gogi'
p88
sg14
g15
sg28
S'gogi'
p89
sg30
g31
sba(ifish
Fish
p90
(dp91
g3
g4
sg5
g6
sg7
S'static/low-res/ichiran/gokurakuhaze.jpg'
p92
sg9
I3
sg10
V\u30b4\u30af\u30e9\u30af\u30cf\u30bc
p93
sg12
S'sakana/gokurakuhaze'
p94
sg14
g15
sg28
S'gokurakuhaze'
p95
sg30
g31
sba(ifish
Fish
p96
(dp97
g3
g4
sg5
g6
sg7
S'static/low-res/ichiran/himehaze.jpg'
p98
sg9
I3
sg10
V\u30d2\u30e1\u30cf\u30bc
p99
sg12
S'sakana/himehaze'
p100
sg14
g15
sg28
S'himehaze'
p101
sg30
g31
sba(ifish
Fish
p102
(dp103
g3
g4
sg5
g6
sg7
S'static/low-res/ichiran/hinahaze.jpg'
p104
sg9
I3
sg10
V\u30d2\u30ca\u30cf\u30bc
p105
sg12
S'sakana/hinahaze'
p106
sg14
g15
sg28
S'hinahaze'
p107
sg30
g31
sba(ifish
Fish
p108
(dp109
g3
g4
sg5
g6
sg7
S'static/low-res/ichiran/hirasuzuki.jpg'
p110
sg9
I3
sg10
V\u30d2\u30e9\u30b9\u30ba\u30ad
p111
sg12
S'sakana/hirasuzuki'
p112
sg14
g15
sg28
S'hirasuzuki'
p113
sg30
g31
sba(ifish
Fish
p114
(dp115
g3
g4
sg5
g6
sg7
S'static/low-res/ichiran/huna.jpg'
p116
sg9
I3
sg10
V\u30d5\u30ca
p117
sg12
S'sakana/huna'
p118
sg14
g15
sg28
S'huna'
p119
sg30
g31
sba(ifish
Fish
p120
(dp121
g3
g4
sg5
g6
sg7
S'static/low-res/ichiran/ishidojou.jpg'
p122
sg9
I3
sg10
V\u30a4\u30b7\u30c9\u30b8\u30e7\u30a6
p123
sg12
S'sakana/ishidojou'
p124
sg14
g15
sg28
S'ishidojou'
p125
sg30
g31
sba(ifish
Fish
p126
(dp127
g3
g4
sg5
g6
sg7
S'static/low-res/ichiran/ishidonko.jpg'
p128
sg9
I3
sg10
V\u30a4\u30b7\u30c9\u30f3\u30b3
p129
sg12
S'sakana/ishidonko'
p130
sg14
g15
sg28
S'ishidonko'
p131
sg30
g31
sba(ifish
Fish
p132
(dp133
g3
g4
sg5
g6
sg7
S'static/low-res/ichiran/itomoroko.jpg'
p134
sg9
I3
sg10
V\u30a4\u30c8\u30e2\u30ed\u30b3
p135
sg12
S'sakana/itomoroko'
p136
sg14
g15
sg28
S'itomoroko'
p137
sg30
g31
sba(ifish
Fish
p138
(dp139
g3
g4
sg5
g6
sg7
S'static/low-res/ichiran/kajika.jpg'
p140
sg9
I3
sg10
V\u30ab\u30b8\u30ab
p141
sg12
S'sakana/kajika'
p142
sg14
g15
sg28
S'kajika'
p143
sg30
g31
sba(ifish
Fish
p144
(dp145
g3
g4
sg5
g6
sg7
S'static/low-res/ichiran/kamatuka.jpg'
p146
sg9
I3
sg10
V\u30ab\u30de\u30c4\u30ab
p147
sg12
S'sakana/kamatuka'
p148
sg14
g15
sg28
S'kamatuka'
p149
sg30
g31
sba(ifish
Fish
p150
(dp151
g3
g4
sg5
g6
sg7
S'static/low-res/ichiran/kawaanago.jpg'
p152
sg9
I3
sg10
V\u30ab\u30ef\u30a2\u30ca\u30b4
p153
sg12
S'sakana/kawaanago'
p154
sg14
g15
sg28
S'kawaanago'
p155
sg30
g31
sba(ifish
Fish
p156
(dp157
g3
g4
sg5
g6
sg7
S'static/low-res/ichiran/kawamutu.jpg'
p158
sg9
I3
sg10
V\u30ab\u30ef\u30e0\u30c4
p159
sg12
S'sakana/kawamutu'
p160
sg14
g15
sg28
S'kawamutu'
p161
sg30
g31
sba(ifish
Fish
p162
(dp163
g3
g4
sg5
g6
sg7
S'static/low-res/ichiran/kawayoshinobori.jpg'
p164
sg9
I3
sg10
V\u30ab\u30ef\u30e8\u30b7\u30ce\u30dc\u30ea
p165
sg12
S'sakana/kawayoshinobori'
p166
sg14
g15
sg28
S'kawayoshinobori'
p167
sg30
g31
sba(ifish
Fish
p168
(dp169
g3
g4
sg5
g6
sg7
S'static/low-res/ichiran/koi.jpg'
p170
sg9
I3
sg10
V\u30b3\u30a4
p171
sg12
S'sakana/koi'
p172
sg14
g15
sg28
S'koi'
p173
sg30
g31
sba(ifish
Fish
p174
(dp175
g3
g4
sg5
g6
sg7
S'static/low-res/ichiran/kurodai.jpg'
p176
sg9
I3
sg10
V\u30af\u30ed\u30c0\u30a4
p177
sg12
S'sakana/kurodai'
p178
sg14
g15
sg28
S'kurodai'
p179
sg30
g31
sba(ifish
Fish
p180
(dp181
g3
g4
sg5
g6
sg7
S'static/low-res/ichiran/magoti.jpg'
p182
sg9
I3
sg10
V\u30de\u30b4\u30c1
p183
sg12
S'sakana/magoti'
p184
sg14
g15
sg28
S'magoti'
p185
sg30
g31
sba(ifish
Fish
p186
(dp187
g3
g4
sg5
g6
sg7
S'static/low-res/ichiran/mahaze.jpg'
p188
sg9
I3
sg10
V\u30de\u30cf\u30bc
p189
sg12
S'sakana/mahaze'
p190
sg14
g15
sg28
S'mahaze'
p191
sg30
g31
sba(ifish
Fish
p192
(dp193
g3
g4
sg5
g6
sg7
S'static/low-res/ichiran/medaka.jpg'
p194
sg9
I3
sg10
V\u30e1\u30c0\u30ab
p195
sg12
S'sakana/medaka'
p196
sg14
g15
sg28
S'medaka'
p197
sg30
g31
sba(ifish
Fish
p198
(dp199
g3
g4
sg5
g6
sg7
S'static/low-res/ichiran/mimizuhaze.jpg'
p200
sg9
I3
sg10
V\u30df\u30df\u30ba\u30cf\u30bc
p201
sg12
S'sakana/mimizuhaze'
p202
sg14
g15
sg28
S'mimizuhaze'
p203
sg30
g31
sba(ifish
Fish
p204
(dp205
g3
g4
sg5
g6
sg7
S'static/low-res/ichiran/mugituku.jpg'
p206
sg9
I3
sg10
V\u30e0\u30ae\u30c4\u30af
p207
sg12
S'sakana/mugituku'
p208
sg14
g15
sg28
S'mugituku'
p209
sg30
g31
sba(ifish
Fish
p210
(dp211
g3
g4
sg5
g6
sg7
S'static/low-res/ichiran/namazu.jpg'
p212
sg9
I3
sg10
V\u30ca\u30de\u30ba
p213
sg12
S'sakana/namazu'
p214
sg14
g15
sg28
S'namazu'
p215
sg30
g31
sba(ifish
Fish
p216
(dp217
g3
g4
sg5
g6
sg7
S'static/low-res/ichiran/numatitibu.jpg'
p218
sg9
I3
sg10
V\u30cc\u30de\u30c1\u30c1\u30d6
p219
sg12
S'sakana/numatitibu'
p220
sg14
g15
sg28
S'numatitibu'
p221
sg30
g31
sba(ifish
Fish
p222
(dp223
g3
g4
sg5
g6
sg7
S'static/low-res/ichiran/oikawa.jpg'
p224
sg9
I3
sg10
V\u30aa\u30a4\u30ab\u30ef
p225
sg12
S'sakana/oikawa'
p226
sg14
g15
sg28
S'oikawa'
p227
sg30
g31
sba(ifish
Fish
p228
(dp229
g3
g4
sg5
g6
sg7
S'static/low-res/ichiran/ooyosinobori.jpg'
p230
sg9
I3
sg10
V\u30aa\u30aa\u30e8\u30b7\u30ce\u30dc\u30ea
p231
sg12
S'sakana/ooyosinobori'
p232
sg14
g15
sg28
S'ooyosinobori'
p233
sg30
g31
sba(ifish
Fish
p234
(dp235
g3
g4
sg5
g6
sg7
S'static/low-res/ichiran/oyanirami.jpg'
p236
sg9
I3
sg10
V\u30aa\u30e4\u30cb\u30e9\u30df
p237
sg12
S'sakana/oyanirami'
p238
sg14
g15
sg28
S'oyanirami'
p239
sg30
g31
sba(ifish
Fish
p240
(dp241
g3
g4
sg5
g6
sg7
S'static/low-res/ichiran/ribbinngo.jpg'
p242
sg9
I3
sg10
V\u30ea\u30c3\u30d3\u30f3\u30b4
p243
sg12
S'sakana/ribbinngo'
p244
sg14
g15
sg28
S'ribbinngo'
p245
sg30
g31
sba(ifish
Fish
p246
(dp247
g3
g4
sg5
g6
sg7
S'static/low-res/ichiran/sakuramasu.jpg'
p248
sg9
I3
sg10
V\u30b5\u30af\u30e9\u30de\u30b9
p249
sg12
S'sakana/sakuramasu'
p250
sg14
g15
sg28
S'sakuramasu'
p251
sg30
g31
sba(ifish
Fish
p252
(dp253
g3
g4
sg5
g6
sg7
S'static/low-res/ichiran/shimadojou.jpg'
p254
sg9
I3
sg10
V\u30b7\u30de\u30c9\u30b8\u30e7\u30a6
p255
sg12
S'sakana/shimadojou'
p256
sg14
g15
sg28
S'shimadojou'
p257
sg30
g31
sba(ifish
Fish
p258
(dp259
g3
g4
sg5
g6
sg7
S'static/low-res/ichiran/shimaisaki.jpg'
p260
sg9
I3
sg10
V\u30b7\u30de\u30a4\u30b5\u30ad
p261
sg12
S'sakana/shimaisaki'
p262
sg14
g15
sg28
S'shimaisaki'
p263
sg30
g31
sba(ifish
Fish
p264
(dp265
g3
g4
sg5
g6
sg7
S'static/low-res/ichiran/shirogisu.jpg'
p266
sg9
I3
sg10
V\u30b7\u30ed\u30ae\u30b9
p267
sg12
S'sakana/shirogisu'
p268
sg14
g15
sg28
S'shirogisu'
p269
sg30
g31
sba(ifish
Fish
p270
(dp271
g3
g4
sg5
g6
sg7
S'static/low-res/ichiran/shirouo.jpg'
p272
sg9
I3
sg10
V\u30b7\u30ed\u30a6\u30aa
p273
sg12
S'sakana/shirouo'
p274
sg14
g15
sg28
S'shirouo'
p275
sg30
g31
sba(ifish
Fish
p276
(dp277
g3
g4
sg5
g6
sg7
S'static/low-res/ichiran/sumiukigori.jpg'
p278
sg9
I3
sg10
V\u30b9\u30df\u30a6\u30ad\u30b4\u30ea
p279
sg12
S'sakana/sumiukigori'
p280
sg14
g15
sg28
S'sumiukigori'
p281
sg30
g31
sba(ifish
Fish
p282
(dp283
g3
g4
sg5
g6
sg7
S'static/low-res/ichiran/sunayatume.jpg'
p284
sg9
I3
sg10
V\u30b9\u30ca\u30e4\u30c4\u30e1
p285
sg12
S'sakana/sunayatume'
p286
sg14
g15
sg28
S'sunayatume'
p287
sg30
g31
sba(ifish
Fish
p288
(dp289
g3
g4
sg5
g6
sg7
S'static/low-res/ichiran/suzuki.jpg'
p290
sg9
I3
sg10
V\u30b9\u30ba\u30ad
p291
sg12
S'sakana/suzuki'
p292
sg14
g15
sg28
S'suzuki'
p293
sg30
g31
sba(ifish
Fish
p294
(dp295
g3
g4
sg5
g6
sg7
S'static/low-res/ichiran/tairikubaratanago.jpg'
p296
sg9
I3
sg10
V\u30bf\u30a4\u30ea\u30af\u30d0\u30e9\u30bf\u30ca\u30b4
p297
sg12
S'sakana/tairikubaratanago'
p298
sg14
g15
sg28
S'tairikubaratanago'
p299
sg30
g31
sba(ifish
Fish
p300
(dp301
g3
g4
sg5
g6
sg7
S'static/low-res/ichiran/titibu.jpg'
p302
sg9
I3
sg10
V\u30c1\u30c1\u30d6
p303
sg12
S'sakana/titibu'
p304
sg14
g15
sg28
S'titibu'
p305
sg30
g31
sba(ifish
Fish
p306
(dp307
g3
g4
sg5
g6
sg7
S'static/low-res/ichiran/touyoshinobori.jpg'
p308
sg9
I3
sg10
V\u30c8\u30a6\u30e8\u30b7\u30ce\u30dc\u30ea
p309
sg12
S'sakana/touyoshinobori'
p310
sg14
g15
sg28
S'touyoshinobori'
p311
sg30
g31
sba(ifish
Fish
p312
(dp313
g3
g4
sg5
g6
sg7
S'static/low-res/ichiran/ugui.jpg'
p314
sg9
I3
sg10
V\u30a6\u30b0\u30a4
p315
sg12
S'sakana/ugui'
p316
sg14
g15
sg28
S'ugui'
p317
sg30
g31
sba(ifish
Fish
p318
(dp319
g3
g4
sg5
g6
sg7
S'static/low-res/ichiran/ukigori.jpg'
p320
sg9
I3
sg10
V\u30a6\u30ad\u30b4\u30ea
p321
sg12
S'sakana/ukigori'
p322
sg14
g15
sg28
S'ukigori'
p323
sg30
g31
sba(ifish
Fish
p324
(dp325
g3
g4
sg5
g6
sg7
S'static/low-res/ichiran/unagi.jpg'
p326
sg9
I3
sg10
V\u30a6\u30ca\u30ae
p327
sg12
S'sakana/unagi'
p328
sg14
g15
sg28
S'unagi'
p329
sg30
g31
sba(ifish
Fish
p330
(dp331
g3
g4
sg5
g6
sg7
S'static/low-res/ichiran/urohaze.jpg'
p332
sg9
I3
sg10
V\u30a6\u30ed\u30cf\u30bc
p333
sg12
S'sakana/urohaze'
p334
sg14
g15
sg28
S'urohaze'
p335
sg30
g31
sba(ifish
Fish
p336
(dp337
g3
g4
sg5
g6
sg7
S'static/low-res/ichiran/yamame.jpg'
p338
sg9
I3
sg10
V\u30e4\u30de\u30e1
p339
sg12
S'sakana/yamame'
p340
sg14
g15
sg28
S'yamame'
p341
sg30
g31
sba.