(lp1
(ifish
Fish
p2
(dp3
S'latin'
p4
Vpiscis abeazus
p5
sS'family'
p6
V\u30a2\u30d9\u30cf\u30bc\u79d1
p7
sS'rarity'
p8
I4
sS'kana'
p9
V\u30a2\u30d9\u30cf\u30bc
p10
sS'location'
p11
(ifish
Location
p12
(dp13
S'_dict'
p14
(dp15
S'Takatsu'
p16
c__builtin__
set
p17
((lp18
I0
aI1
aI2
atRp19
sS'Masuda'
p20
g17
((lp21
I2
aI3
atRp22
ssbsS'romaji'
p23
Vabehaze
p24
sS'genus'
p25
V\u30a2\u30d9\u30cf\u30bc\u5c5e
p26
sba(ifish
Fish
p27
(dp28
g4
S'piscis maximus'
p29
sg6
V\u9b5a\u79d1
p30
sg8
I3
sg9
V\u30a2\u30d6\u30e9\u30dc\u30c6
p31
sg11
(ifish
Location
p32
(dp33
g14
(dp34
g16
g17
((lp35
I0
atRp36
sg20
g17
((ltRp37
ssbsg23
Vaburabote
p38
sg25
V\u9b5a\u5c5e
p39
sba(ifish
Fish
p40
(dp41
g4
g29
sg6
g30
sg8
I2
sg9
V\u30a2\u30ab\u30b6
p42
sg11
(ifish
Location
p43
(dp44
g14
(dp45
g16
g17
((lp46
I0
atRp47
sg20
g17
((lp48
I0
atRp49
ssbsg23
Vakaza
p50
sg25
g39
sba(ifish
Fish
p51
(dp52
g4
g29
sg6
g30
sg8
I3
sg9
V\u30a2\u30de\u30b4
p53
sg11
(ifish
Location
p54
(dp55
g14
(dp56
g16
g17
((ltRp57
sg20
g17
((ltRp58
ssbsg23
S'amago'
p59
sg25
g39
sba(ifish
Fish
p60
(dp61
g4
g29
sg6
g30
sg8
I3
sg9
V\u30a2\u30e6
p62
sg11
(ifish
Location
p63
(dp64
g14
(dp65
g16
g17
((ltRp66
sg20
g17
((ltRp67
ssbsg23
S'ayu'
p68
sg25
g39
sba(ifish
Fish
p69
(dp70
g4
g29
sg6
g30
sg8
I3
sg9
V\u30a2\u30e6\u30ab\u30b1
p71
sg11
(ifish
Location
p72
(dp73
g14
(dp74
g16
g17
((ltRp75
sg20
g17
((ltRp76
ssbsg23
S'ayukake'
p77
sg25
g39
sba(ifish
Fish
p78
(dp79
g4
g29
sg6
g30
sg8
I3
sg9
V\u30dc\u30e9
p80
sg11
(ifish
Location
p81
(dp82
g14
(dp83
g16
g17
((ltRp84
sg20
g17
((ltRp85
ssbsg23
S'bora'
p86
sg25
g39
sba(ifish
Fish
p87
(dp88
g4
g29
sg6
g30
sg8
I3
sg9
V\u30c9\u30b8\u30e7\u30a6
p89
sg11
(ifish
Location
p90
(dp91
g14
(dp92
g16
g17
((ltRp93
sg20
g17
((ltRp94
ssbsg23
S'dojou'
p95
sg25
g39
sba(ifish
Fish
p96
(dp97
g4
g29
sg6
g30
sg8
I3
sg9
V\u30c9\u30f3\u30b3
p98
sg11
(ifish
Location
p99
(dp100
g14
(dp101
g16
g17
((ltRp102
sg20
g17
((ltRp103
ssbsg23
S'donnko'
p104
sg25
g39
sba(ifish
Fish
p105
(dp106
g4
g29
sg6
g30
sg8
I3
sg9
V\u30ae\u30ae
p107
sg11
(ifish
Location
p108
(dp109
g14
(dp110
g16
g17
((ltRp111
sg20
g17
((ltRp112
ssbsg23
S'gigi'
p113
sg25
g39
sba(ifish
Fish
p114
(dp115
g4
g29
sg6
g30
sg8
I3
sg9
V\u30b4\u30ae
p116
sg11
(ifish
Location
p117
(dp118
g14
(dp119
g16
g17
((ltRp120
sg20
g17
((ltRp121
ssbsg23
S'gogi'
p122
sg25
g39
sba(ifish
Fish
p123
(dp124
g4
g29
sg6
g30
sg8
I3
sg9
V\u30b4\u30af\u30e9\u30af\u30cf\u30bc
p125
sg11
(ifish
Location
p126
(dp127
g14
(dp128
g16
g17
((ltRp129
sg20
g17
((ltRp130
ssbsg23
S'gokurakuhaze'
p131
sg25
g39
sba(ifish
Fish
p132
(dp133
g4
g29
sg6
g30
sg8
I3
sg9
V\u30d2\u30e1\u30cf\u30bc
p134
sg11
(ifish
Location
p135
(dp136
g14
(dp137
g16
g17
((ltRp138
sg20
g17
((ltRp139
ssbsg23
S'himehaze'
p140
sg25
g39
sba(ifish
Fish
p141
(dp142
g4
g29
sg6
g30
sg8
I3
sg9
V\u30d2\u30ca\u30cf\u30bc
p143
sg11
(ifish
Location
p144
(dp145
g14
(dp146
g16
g17
((ltRp147
sg20
g17
((ltRp148
ssbsg23
S'hinahaze'
p149
sg25
g39
sba(ifish
Fish
p150
(dp151
g4
g29
sg6
g30
sg8
I3
sg9
V\u30d2\u30e9\u30b9\u30ba\u30ad
p152
sg11
(ifish
Location
p153
(dp154
g14
(dp155
g16
g17
((ltRp156
sg20
g17
((ltRp157
ssbsg23
S'hirasuzuki'
p158
sg25
g39
sba(ifish
Fish
p159
(dp160
g4
g29
sg6
g30
sg8
I3
sg9
V\u30d5\u30ca
p161
sg11
(ifish
Location
p162
(dp163
g14
(dp164
g16
g17
((ltRp165
sg20
g17
((ltRp166
ssbsg23
S'huna'
p167
sg25
g39
sba(ifish
Fish
p168
(dp169
g4
g29
sg6
g30
sg8
I3
sg9
V\u30a4\u30b7\u30c9\u30b8\u30e7\u30a6
p170
sg11
(ifish
Location
p171
(dp172
g14
(dp173
g16
g17
((ltRp174
sg20
g17
((ltRp175
ssbsg23
S'ishidojou'
p176
sg25
g39
sba(ifish
Fish
p177
(dp178
g4
g29
sg6
g30
sg8
I3
sg9
V\u30a4\u30b7\u30c9\u30f3\u30b3
p179
sg11
(ifish
Location
p180
(dp181
g14
(dp182
g16
g17
((ltRp183
sg20
g17
((ltRp184
ssbsg23
S'ishidonko'
p185
sg25
g39
sba(ifish
Fish
p186
(dp187
g4
g29
sg6
g30
sg8
I3
sg9
V\u30a4\u30c8\u30e2\u30ed\u30b3
p188
sg11
(ifish
Location
p189
(dp190
g14
(dp191
g16
g17
((ltRp192
sg20
g17
((ltRp193
ssbsg23
S'itomoroko'
p194
sg25
g39
sba(ifish
Fish
p195
(dp196
g4
g29
sg6
g30
sg8
I3
sg9
V\u30ab\u30b8\u30ab
p197
sg11
(ifish
Location
p198
(dp199
g14
(dp200
g16
g17
((ltRp201
sg20
g17
((ltRp202
ssbsg23
S'kajika'
p203
sg25
g39
sba(ifish
Fish
p204
(dp205
g4
g29
sg6
g30
sg8
I3
sg9
V\u30ab\u30de\u30c4\u30ab
p206
sg11
(ifish
Location
p207
(dp208
g14
(dp209
g16
g17
((ltRp210
sg20
g17
((ltRp211
ssbsg23
S'kamatuka'
p212
sg25
g39
sba(ifish
Fish
p213
(dp214
g4
g29
sg6
g30
sg8
I3
sg9
V\u30ab\u30ef\u30a2\u30ca\u30b4
p215
sg11
(ifish
Location
p216
(dp217
g14
(dp218
g16
g17
((ltRp219
sg20
g17
((ltRp220
ssbsg23
S'kawaanago'
p221
sg25
g39
sba(ifish
Fish
p222
(dp223
g4
g29
sg6
g30
sg8
I3
sg9
V\u30ab\u30ef\u30e0\u30c4
p224
sg11
(ifish
Location
p225
(dp226
g14
(dp227
g16
g17
((ltRp228
sg20
g17
((ltRp229
ssbsg23
S'kawamutu'
p230
sg25
g39
sba(ifish
Fish
p231
(dp232
g4
g29
sg6
g30
sg8
I3
sg9
V\u30ab\u30ef\u30e8\u30b7\u30ce\u30dc\u30ea
p233
sg11
(ifish
Location
p234
(dp235
g14
(dp236
g16
g17
((ltRp237
sg20
g17
((ltRp238
ssbsg23
S'kawayoshinobori'
p239
sg25
g39
sba(ifish
Fish
p240
(dp241
g4
g29
sg6
g30
sg8
I3
sg9
V\u30b3\u30a4
p242
sg11
(ifish
Location
p243
(dp244
g14
(dp245
g16
g17
((ltRp246
sg20
g17
((ltRp247
ssbsg23
S'koi'
p248
sg25
g39
sba(ifish
Fish
p249
(dp250
g4
g29
sg6
g30
sg8
I3
sg9
V\u30af\u30ed\u30c0\u30a4
p251
sg11
(ifish
Location
p252
(dp253
g14
(dp254
g16
g17
((ltRp255
sg20
g17
((ltRp256
ssbsg23
S'kurodai'
p257
sg25
g39
sba(ifish
Fish
p258
(dp259
g4
g29
sg6
g30
sg8
I3
sg9
V\u30de\u30b4\u30c1
p260
sg11
(ifish
Location
p261
(dp262
g14
(dp263
g16
g17
((ltRp264
sg20
g17
((ltRp265
ssbsg23
S'magoti'
p266
sg25
g39
sba(ifish
Fish
p267
(dp268
g4
g29
sg6
g30
sg8
I3
sg9
V\u30de\u30cf\u30bc
p269
sg11
(ifish
Location
p270
(dp271
g14
(dp272
g16
g17
((ltRp273
sg20
g17
((ltRp274
ssbsg23
S'mahaze'
p275
sg25
g39
sba(ifish
Fish
p276
(dp277
g4
g29
sg6
g30
sg8
I3
sg9
V\u30e1\u30c0\u30ab
p278
sg11
(ifish
Location
p279
(dp280
g14
(dp281
g16
g17
((ltRp282
sg20
g17
((ltRp283
ssbsg23
S'medaka'
p284
sg25
g39
sba(ifish
Fish
p285
(dp286
g4
g29
sg6
g30
sg8
I3
sg9
V\u30df\u30df\u30ba\u30cf\u30bc
p287
sg11
(ifish
Location
p288
(dp289
g14
(dp290
g16
g17
((ltRp291
sg20
g17
((ltRp292
ssbsg23
S'mimizuhaze'
p293
sg25
g39
sba(ifish
Fish
p294
(dp295
g4
g29
sg6
g30
sg8
I3
sg9
V\u30e0\u30ae\u30c4\u30af
p296
sg11
(ifish
Location
p297
(dp298
g14
(dp299
g16
g17
((ltRp300
sg20
g17
((ltRp301
ssbsg23
S'mugituku'
p302
sg25
g39
sba(ifish
Fish
p303
(dp304
g4
g29
sg6
g30
sg8
I3
sg9
V\u30ca\u30de\u30ba
p305
sg11
(ifish
Location
p306
(dp307
g14
(dp308
g16
g17
((ltRp309
sg20
g17
((ltRp310
ssbsg23
S'namazu'
p311
sg25
g39
sba(ifish
Fish
p312
(dp313
g4
g29
sg6
g30
sg8
I3
sg9
V\u30cc\u30de\u30c1\u30c1\u30d6
p314
sg11
(ifish
Location
p315
(dp316
g14
(dp317
g16
g17
((ltRp318
sg20
g17
((ltRp319
ssbsg23
S'numatitibu'
p320
sg25
g39
sba(ifish
Fish
p321
(dp322
g4
g29
sg6
g30
sg8
I3
sg9
V\u30aa\u30a4\u30ab\u30ef
p323
sg11
(ifish
Location
p324
(dp325
g14
(dp326
g16
g17
((ltRp327
sg20
g17
((ltRp328
ssbsg23
S'oikawa'
p329
sg25
g39
sba(ifish
Fish
p330
(dp331
g4
g29
sg6
g30
sg8
I3
sg9
V\u30aa\u30aa\u30e8\u30b7\u30ce\u30dc\u30ea
p332
sg11
(ifish
Location
p333
(dp334
g14
(dp335
g16
g17
((ltRp336
sg20
g17
((ltRp337
ssbsg23
S'ooyosinobori'
p338
sg25
g39
sba(ifish
Fish
p339
(dp340
g4
g29
sg6
g30
sg8
I3
sg9
V\u30aa\u30e4\u30cb\u30e9\u30df
p341
sg11
(ifish
Location
p342
(dp343
g14
(dp344
g16
g17
((ltRp345
sg20
g17
((ltRp346
ssbsg23
S'oyanirami'
p347
sg25
g39
sba(ifish
Fish
p348
(dp349
g4
g29
sg6
g30
sg8
I3
sg9
V\u30ea\u30c3\u30d3\u30f3\u30b4
p350
sg11
(ifish
Location
p351
(dp352
g14
(dp353
g16
g17
((ltRp354
sg20
g17
((ltRp355
ssbsg23
S'ribbinngo'
p356
sg25
g39
sba(ifish
Fish
p357
(dp358
g4
g29
sg6
g30
sg8
I3
sg9
V\u30b5\u30af\u30e9\u30de\u30b9
p359
sg11
(ifish
Location
p360
(dp361
g14
(dp362
g16
g17
((ltRp363
sg20
g17
((ltRp364
ssbsg23
S'sakuramasu'
p365
sg25
g39
sba(ifish
Fish
p366
(dp367
g4
g29
sg6
g30
sg8
I3
sg9
V\u30b7\u30de\u30c9\u30b8\u30e7\u30a6
p368
sg11
(ifish
Location
p369
(dp370
g14
(dp371
g16
g17
((ltRp372
sg20
g17
((ltRp373
ssbsg23
S'shimadojou'
p374
sg25
g39
sba(ifish
Fish
p375
(dp376
g4
g29
sg6
g30
sg8
I3
sg9
V\u30b7\u30de\u30a4\u30b5\u30ad
p377
sg11
(ifish
Location
p378
(dp379
g14
(dp380
g16
g17
((ltRp381
sg20
g17
((ltRp382
ssbsg23
S'shimaisaki'
p383
sg25
g39
sba(ifish
Fish
p384
(dp385
g4
g29
sg6
g30
sg8
I3
sg9
V\u30b7\u30ed\u30ae\u30b9
p386
sg11
(ifish
Location
p387
(dp388
g14
(dp389
g16
g17
((ltRp390
sg20
g17
((ltRp391
ssbsg23
S'shirogisu'
p392
sg25
g39
sba(ifish
Fish
p393
(dp394
g4
g29
sg6
g30
sg8
I3
sg9
V\u30b7\u30ed\u30a6\u30aa
p395
sg11
(ifish
Location
p396
(dp397
g14
(dp398
g16
g17
((ltRp399
sg20
g17
((ltRp400
ssbsg23
S'shirouo'
p401
sg25
g39
sba(ifish
Fish
p402
(dp403
g4
g29
sg6
g30
sg8
I3
sg9
V\u30b9\u30df\u30a6\u30ad\u30b4\u30ea
p404
sg11
(ifish
Location
p405
(dp406
g14
(dp407
g16
g17
((ltRp408
sg20
g17
((ltRp409
ssbsg23
S'sumiukigori'
p410
sg25
g39
sba(ifish
Fish
p411
(dp412
g4
g29
sg6
g30
sg8
I3
sg9
V\u30b9\u30ca\u30e4\u30c4\u30e1
p413
sg11
(ifish
Location
p414
(dp415
g14
(dp416
g16
g17
((ltRp417
sg20
g17
((ltRp418
ssbsg23
S'sunayatume'
p419
sg25
g39
sba(ifish
Fish
p420
(dp421
g4
g29
sg6
g30
sg8
I3
sg9
V\u30b9\u30ba\u30ad
p422
sg11
(ifish
Location
p423
(dp424
g14
(dp425
g16
g17
((ltRp426
sg20
g17
((ltRp427
ssbsg23
S'suzuki'
p428
sg25
g39
sba(ifish
Fish
p429
(dp430
g4
g29
sg6
g30
sg8
I3
sg9
V\u30bf\u30a4\u30ea\u30af\u30d0\u30e9\u30bf\u30ca\u30b4
p431
sg11
(ifish
Location
p432
(dp433
g14
(dp434
g16
g17
((ltRp435
sg20
g17
((ltRp436
ssbsg23
S'tairikubaratanago'
p437
sg25
g39
sba(ifish
Fish
p438
(dp439
g4
g29
sg6
g30
sg8
I3
sg9
V\u30c1\u30c1\u30d6
p440
sg11
(ifish
Location
p441
(dp442
g14
(dp443
g16
g17
((ltRp444
sg20
g17
((ltRp445
ssbsg23
S'titibu'
p446
sg25
g39
sba(ifish
Fish
p447
(dp448
g4
g29
sg6
g30
sg8
I3
sg9
V\u30c8\u30a6\u30e8\u30b7\u30ce\u30dc\u30ea
p449
sg11
(ifish
Location
p450
(dp451
g14
(dp452
g16
g17
((ltRp453
sg20
g17
((ltRp454
ssbsg23
S'touyoshinobori'
p455
sg25
g39
sba(ifish
Fish
p456
(dp457
g4
g29
sg6
g30
sg8
I3
sg9
V\u30a6\u30b0\u30a4
p458
sg11
(ifish
Location
p459
(dp460
g14
(dp461
g16
g17
((ltRp462
sg20
g17
((ltRp463
ssbsg23
S'ugui'
p464
sg25
g39
sba(ifish
Fish
p465
(dp466
g4
g29
sg6
g30
sg8
I3
sg9
V\u30a6\u30ad\u30b4\u30ea
p467
sg11
(ifish
Location
p468
(dp469
g14
(dp470
g16
g17
((ltRp471
sg20
g17
((ltRp472
ssbsg23
S'ukigori'
p473
sg25
g39
sba(ifish
Fish
p474
(dp475
g4
g29
sg6
g30
sg8
I3
sg9
V\u30a6\u30ca\u30ae
p476
sg11
(ifish
Location
p477
(dp478
g14
(dp479
g16
g17
((ltRp480
sg20
g17
((ltRp481
ssbsg23
S'unagi'
p482
sg25
g39
sba(ifish
Fish
p483
(dp484
g4
g29
sg6
g30
sg8
I3
sg9
V\u30a6\u30ed\u30cf\u30bc
p485
sg11
(ifish
Location
p486
(dp487
g14
(dp488
g16
g17
((ltRp489
sg20
g17
((ltRp490
ssbsg23
S'urohaze'
p491
sg25
g39
sba(ifish
Fish
p492
(dp493
g4
g29
sg6
g30
sg8
I3
sg9
V\u30e4\u30de\u30e1
p494
sg11
(ifish
Location
p495
(dp496
g14
(dp497
g16
g17
((ltRp498
sg20
g17
((ltRp499
ssbsg23
S'yamame'
p500
sg25
g39
sba.