(lp1
(ifish
Fish
p2
(dp3
S'latin'
p4
S'piscis maximus'
p5
sS'family'
p6
V\u30a2\u30d9\u30cf\u30bc\u79d1
p7
sS'rarity'
p8
I4
sS'kana'
p9
V\u30a2\u30d9\u30cf\u30bc
p10
sS'location'
p11
(ifish
Location
p12
(dp13
S'_dict'
p14
(dp15
S'Takatsu'
p16
c__builtin__
set
p17
((lp18
I0
aI1
aI2
atRp19
sS'Masuda'
p20
g17
((lp21
I2
aI3
atRp22
ssbsS'romaji'
p23
Vabehaze
p24
sS'genus'
p25
V\u30a2\u30d9\u30cf\u30bc\u5c5e
p26
sba(ifish
Fish
p27
(dp28
g4
g5
sg6
V\u9b5a\u79d1
p29
sg8
I3
sg9
V\u30a2\u30d6\u30e9\u30dc\u30c6
p30
sg11
(ifish
Location
p31
(dp32
g14
(dp33
g16
g17
((lp34
I0
atRp35
sg20
g17
((ltRp36
ssbsg23
Vaburabote
p37
sg25
V\u9b5a\u5c5e
p38
sba(ifish
Fish
p39
(dp40
g4
g5
sg6
g29
sg8
I2
sg9
V\u30a2\u30ab\u30b6
p41
sg11
(ifish
Location
p42
(dp43
g14
(dp44
g16
g17
((lp45
I0
atRp46
sg20
g17
((lp47
I0
atRp48
ssbsg23
Vakaza
p49
sg25
g38
sba(ifish
Fish
p50
(dp51
g4
g5
sg6
g29
sg8
I3
sg9
V\u30a2\u30de\u30b4
p52
sg11
(ifish
Location
p53
(dp54
g14
(dp55
g16
g17
((ltRp56
sg20
g17
((ltRp57
ssbsg23
S'amago'
p58
sg25
g38
sba(ifish
Fish
p59
(dp60
g4
g5
sg6
g29
sg8
I3
sg9
V\u30a2\u30e6
p61
sg11
(ifish
Location
p62
(dp63
g14
(dp64
g16
g17
((ltRp65
sg20
g17
((ltRp66
ssbsg23
S'ayu'
p67
sg25
g38
sba(ifish
Fish
p68
(dp69
g4
g5
sg6
g29
sg8
I3
sg9
V\u30a2\u30e6\u30ab\u30b1
p70
sg11
(ifish
Location
p71
(dp72
g14
(dp73
g16
g17
((ltRp74
sg20
g17
((ltRp75
ssbsg23
S'ayukake'
p76
sg25
g38
sba(ifish
Fish
p77
(dp78
g4
g5
sg6
g29
sg8
I3
sg9
V\u30dc\u30e9
p79
sg11
(ifish
Location
p80
(dp81
g14
(dp82
g16
g17
((ltRp83
sg20
g17
((ltRp84
ssbsg23
S'bora'
p85
sg25
g38
sba(ifish
Fish
p86
(dp87
g4
g5
sg6
g29
sg8
I3
sg9
V\u30c9\u30b8\u30e7\u30a6
p88
sg11
(ifish
Location
p89
(dp90
g14
(dp91
g16
g17
((ltRp92
sg20
g17
((ltRp93
ssbsg23
S'dojou'
p94
sg25
g38
sba(ifish
Fish
p95
(dp96
g4
g5
sg6
g29
sg8
I3
sg9
V\u30c9\u30f3\u30b3
p97
sg11
(ifish
Location
p98
(dp99
g14
(dp100
g16
g17
((ltRp101
sg20
g17
((ltRp102
ssbsg23
S'donnko'
p103
sg25
g38
sba(ifish
Fish
p104
(dp105
g4
g5
sg6
g29
sg8
I3
sg9
V\u30ae\u30ae
p106
sg11
(ifish
Location
p107
(dp108
g14
(dp109
g16
g17
((ltRp110
sg20
g17
((ltRp111
ssbsg23
S'gigi'
p112
sg25
g38
sba(ifish
Fish
p113
(dp114
g4
g5
sg6
g29
sg8
I3
sg9
V\u30b4\u30ae
p115
sg11
(ifish
Location
p116
(dp117
g14
(dp118
g16
g17
((ltRp119
sg20
g17
((ltRp120
ssbsg23
S'gogi'
p121
sg25
g38
sba(ifish
Fish
p122
(dp123
g4
g5
sg6
g29
sg8
I3
sg9
V\u30b4\u30af\u30e9\u30af\u30cf\u30bc
p124
sg11
(ifish
Location
p125
(dp126
g14
(dp127
g16
g17
((ltRp128
sg20
g17
((ltRp129
ssbsg23
S'gokurakuhaze'
p130
sg25
g38
sba(ifish
Fish
p131
(dp132
g4
g5
sg6
g29
sg8
I3
sg9
V\u30d2\u30e1\u30cf\u30bc
p133
sg11
(ifish
Location
p134
(dp135
g14
(dp136
g16
g17
((ltRp137
sg20
g17
((ltRp138
ssbsg23
S'himehaze'
p139
sg25
g38
sba(ifish
Fish
p140
(dp141
g4
g5
sg6
g29
sg8
I3
sg9
V\u30d2\u30ca\u30cf\u30bc
p142
sg11
(ifish
Location
p143
(dp144
g14
(dp145
g16
g17
((ltRp146
sg20
g17
((ltRp147
ssbsg23
S'hinahaze'
p148
sg25
g38
sba(ifish
Fish
p149
(dp150
g4
g5
sg6
g29
sg8
I3
sg9
V\u30d2\u30e9\u30b9\u30ba\u30ad
p151
sg11
(ifish
Location
p152
(dp153
g14
(dp154
g16
g17
((ltRp155
sg20
g17
((ltRp156
ssbsg23
S'hirasuzuki'
p157
sg25
g38
sba(ifish
Fish
p158
(dp159
g4
g5
sg6
g29
sg8
I3
sg9
V\u30d5\u30ca
p160
sg11
(ifish
Location
p161
(dp162
g14
(dp163
g16
g17
((ltRp164
sg20
g17
((ltRp165
ssbsg23
S'huna'
p166
sg25
g38
sba(ifish
Fish
p167
(dp168
g4
g5
sg6
g29
sg8
I3
sg9
V\u30a4\u30b7\u30c9\u30b8\u30e7\u30a6
p169
sg11
(ifish
Location
p170
(dp171
g14
(dp172
g16
g17
((ltRp173
sg20
g17
((ltRp174
ssbsg23
S'ishidojou'
p175
sg25
g38
sba(ifish
Fish
p176
(dp177
g4
g5
sg6
g29
sg8
I3
sg9
V\u30a4\u30b7\u30c9\u30f3\u30b3
p178
sg11
(ifish
Location
p179
(dp180
g14
(dp181
g16
g17
((ltRp182
sg20
g17
((ltRp183
ssbsg23
S'ishidonko'
p184
sg25
g38
sba(ifish
Fish
p185
(dp186
g4
g5
sg6
g29
sg8
I3
sg9
V\u30a4\u30c8\u30e2\u30ed\u30b3
p187
sg11
(ifish
Location
p188
(dp189
g14
(dp190
g16
g17
((ltRp191
sg20
g17
((ltRp192
ssbsg23
S'itomoroko'
p193
sg25
g38
sba(ifish
Fish
p194
(dp195
g4
g5
sg6
g29
sg8
I3
sg9
V\u30ab\u30b8\u30ab
p196
sg11
(ifish
Location
p197
(dp198
g14
(dp199
g16
g17
((ltRp200
sg20
g17
((ltRp201
ssbsg23
S'kajika'
p202
sg25
g38
sba(ifish
Fish
p203
(dp204
g4
g5
sg6
g29
sg8
I3
sg9
V\u30ab\u30de\u30c4\u30ab
p205
sg11
(ifish
Location
p206
(dp207
g14
(dp208
g16
g17
((ltRp209
sg20
g17
((ltRp210
ssbsg23
S'kamatuka'
p211
sg25
g38
sba(ifish
Fish
p212
(dp213
g4
g5
sg6
g29
sg8
I3
sg9
V\u30ab\u30ef\u30a2\u30ca\u30b4
p214
sg11
(ifish
Location
p215
(dp216
g14
(dp217
g16
g17
((ltRp218
sg20
g17
((ltRp219
ssbsg23
S'kawaanago'
p220
sg25
g38
sba(ifish
Fish
p221
(dp222
g4
g5
sg6
g29
sg8
I3
sg9
V\u30ab\u30ef\u30e0\u30c4
p223
sg11
(ifish
Location
p224
(dp225
g14
(dp226
g16
g17
((ltRp227
sg20
g17
((ltRp228
ssbsg23
S'kawamutu'
p229
sg25
g38
sba(ifish
Fish
p230
(dp231
g4
g5
sg6
g29
sg8
I3
sg9
V\u30ab\u30ef\u30e8\u30b7\u30ce\u30dc\u30ea
p232
sg11
(ifish
Location
p233
(dp234
g14
(dp235
g16
g17
((ltRp236
sg20
g17
((ltRp237
ssbsg23
S'kawayoshinobori'
p238
sg25
g38
sba(ifish
Fish
p239
(dp240
g4
g5
sg6
g29
sg8
I3
sg9
V\u30b3\u30a4
p241
sg11
(ifish
Location
p242
(dp243
g14
(dp244
g16
g17
((ltRp245
sg20
g17
((ltRp246
ssbsg23
S'koi'
p247
sg25
g38
sba(ifish
Fish
p248
(dp249
g4
g5
sg6
g29
sg8
I3
sg9
V\u30af\u30ed\u30c0\u30a4
p250
sg11
(ifish
Location
p251
(dp252
g14
(dp253
g16
g17
((ltRp254
sg20
g17
((ltRp255
ssbsg23
S'kurodai'
p256
sg25
g38
sba(ifish
Fish
p257
(dp258
g4
g5
sg6
g29
sg8
I3
sg9
V\u30de\u30b4\u30c1
p259
sg11
(ifish
Location
p260
(dp261
g14
(dp262
g16
g17
((ltRp263
sg20
g17
((ltRp264
ssbsg23
S'magoti'
p265
sg25
g38
sba(ifish
Fish
p266
(dp267
g4
g5
sg6
g29
sg8
I3
sg9
V\u30de\u30cf\u30bc
p268
sg11
(ifish
Location
p269
(dp270
g14
(dp271
g16
g17
((ltRp272
sg20
g17
((ltRp273
ssbsg23
S'mahaze'
p274
sg25
g38
sba(ifish
Fish
p275
(dp276
g4
g5
sg6
g29
sg8
I3
sg9
V\u30e1\u30c0\u30ab
p277
sg11
(ifish
Location
p278
(dp279
g14
(dp280
g16
g17
((ltRp281
sg20
g17
((ltRp282
ssbsg23
S'medaka'
p283
sg25
g38
sba(ifish
Fish
p284
(dp285
g4
g5
sg6
g29
sg8
I3
sg9
V\u30df\u30df\u30ba\u30cf\u30bc
p286
sg11
(ifish
Location
p287
(dp288
g14
(dp289
g16
g17
((ltRp290
sg20
g17
((ltRp291
ssbsg23
S'mimizuhaze'
p292
sg25
g38
sba(ifish
Fish
p293
(dp294
g4
g5
sg6
g29
sg8
I3
sg9
V\u30e0\u30ae\u30c4\u30af
p295
sg11
(ifish
Location
p296
(dp297
g14
(dp298
g16
g17
((ltRp299
sg20
g17
((ltRp300
ssbsg23
S'mugituku'
p301
sg25
g38
sba(ifish
Fish
p302
(dp303
g4
g5
sg6
g29
sg8
I3
sg9
V\u30ca\u30de\u30ba
p304
sg11
(ifish
Location
p305
(dp306
g14
(dp307
g16
g17
((ltRp308
sg20
g17
((ltRp309
ssbsg23
S'namazu'
p310
sg25
g38
sba(ifish
Fish
p311
(dp312
g4
g5
sg6
g29
sg8
I3
sg9
V\u30cc\u30de\u30c1\u30c1\u30d6
p313
sg11
(ifish
Location
p314
(dp315
g14
(dp316
g16
g17
((ltRp317
sg20
g17
((ltRp318
ssbsg23
S'numatitibu'
p319
sg25
g38
sba(ifish
Fish
p320
(dp321
g4
g5
sg6
g29
sg8
I3
sg9
V\u30aa\u30a4\u30ab\u30ef
p322
sg11
(ifish
Location
p323
(dp324
g14
(dp325
g16
g17
((ltRp326
sg20
g17
((ltRp327
ssbsg23
S'oikawa'
p328
sg25
g38
sba(ifish
Fish
p329
(dp330
g4
g5
sg6
g29
sg8
I3
sg9
V\u30aa\u30aa\u30e8\u30b7\u30ce\u30dc\u30ea
p331
sg11
(ifish
Location
p332
(dp333
g14
(dp334
g16
g17
((ltRp335
sg20
g17
((ltRp336
ssbsg23
S'ooyosinobori'
p337
sg25
g38
sba(ifish
Fish
p338
(dp339
g4
g5
sg6
g29
sg8
I3
sg9
V\u30aa\u30e4\u30cb\u30e9\u30df
p340
sg11
(ifish
Location
p341
(dp342
g14
(dp343
g16
g17
((ltRp344
sg20
g17
((ltRp345
ssbsg23
S'oyanirami'
p346
sg25
g38
sba(ifish
Fish
p347
(dp348
g4
g5
sg6
g29
sg8
I3
sg9
V\u30ea\u30c3\u30d3\u30f3\u30b4
p349
sg11
(ifish
Location
p350
(dp351
g14
(dp352
g16
g17
((ltRp353
sg20
g17
((ltRp354
ssbsg23
S'ribbinngo'
p355
sg25
g38
sba(ifish
Fish
p356
(dp357
g4
g5
sg6
g29
sg8
I3
sg9
V\u30b5\u30af\u30e9\u30de\u30b9
p358
sg11
(ifish
Location
p359
(dp360
g14
(dp361
g16
g17
((ltRp362
sg20
g17
((ltRp363
ssbsg23
S'sakuramasu'
p364
sg25
g38
sba(ifish
Fish
p365
(dp366
g4
g5
sg6
g29
sg8
I3
sg9
V\u30b7\u30de\u30c9\u30b8\u30e7\u30a6
p367
sg11
(ifish
Location
p368
(dp369
g14
(dp370
g16
g17
((ltRp371
sg20
g17
((ltRp372
ssbsg23
S'shimadojou'
p373
sg25
g38
sba(ifish
Fish
p374
(dp375
g4
g5
sg6
g29
sg8
I3
sg9
V\u30b7\u30de\u30a4\u30b5\u30ad
p376
sg11
(ifish
Location
p377
(dp378
g14
(dp379
g16
g17
((ltRp380
sg20
g17
((ltRp381
ssbsg23
S'shimaisaki'
p382
sg25
g38
sba(ifish
Fish
p383
(dp384
g4
g5
sg6
g29
sg8
I3
sg9
V\u30b7\u30ed\u30ae\u30b9
p385
sg11
(ifish
Location
p386
(dp387
g14
(dp388
g16
g17
((ltRp389
sg20
g17
((ltRp390
ssbsg23
S'shirogisu'
p391
sg25
g38
sba(ifish
Fish
p392
(dp393
g4
g5
sg6
g29
sg8
I3
sg9
V\u30b7\u30ed\u30a6\u30aa
p394
sg11
(ifish
Location
p395
(dp396
g14
(dp397
g16
g17
((ltRp398
sg20
g17
((ltRp399
ssbsg23
S'shirouo'
p400
sg25
g38
sba(ifish
Fish
p401
(dp402
g4
g5
sg6
g29
sg8
I3
sg9
V\u30b9\u30df\u30a6\u30ad\u30b4\u30ea
p403
sg11
(ifish
Location
p404
(dp405
g14
(dp406
g16
g17
((ltRp407
sg20
g17
((ltRp408
ssbsg23
S'sumiukigori'
p409
sg25
g38
sba(ifish
Fish
p410
(dp411
g4
g5
sg6
g29
sg8
I3
sg9
V\u30b9\u30ca\u30e4\u30c4\u30e1
p412
sg11
(ifish
Location
p413
(dp414
g14
(dp415
g16
g17
((ltRp416
sg20
g17
((ltRp417
ssbsg23
S'sunayatume'
p418
sg25
g38
sba(ifish
Fish
p419
(dp420
g4
g5
sg6
g29
sg8
I3
sg9
V\u30b9\u30ba\u30ad
p421
sg11
(ifish
Location
p422
(dp423
g14
(dp424
g16
g17
((ltRp425
sg20
g17
((ltRp426
ssbsg23
S'suzuki'
p427
sg25
g38
sba(ifish
Fish
p428
(dp429
g4
g5
sg6
g29
sg8
I3
sg9
V\u30bf\u30a4\u30ea\u30af\u30d0\u30e9\u30bf\u30ca\u30b4
p430
sg11
(ifish
Location
p431
(dp432
g14
(dp433
g16
g17
((ltRp434
sg20
g17
((ltRp435
ssbsg23
S'tairikubaratanago'
p436
sg25
g38
sba(ifish
Fish
p437
(dp438
g4
g5
sg6
g29
sg8
I3
sg9
V\u30c1\u30c1\u30d6
p439
sg11
(ifish
Location
p440
(dp441
g14
(dp442
g16
g17
((ltRp443
sg20
g17
((ltRp444
ssbsg23
S'titibu'
p445
sg25
g38
sba(ifish
Fish
p446
(dp447
g4
g5
sg6
g29
sg8
I3
sg9
V\u30c8\u30a6\u30e8\u30b7\u30ce\u30dc\u30ea
p448
sg11
(ifish
Location
p449
(dp450
g14
(dp451
g16
g17
((ltRp452
sg20
g17
((ltRp453
ssbsg23
S'touyoshinobori'
p454
sg25
g38
sba(ifish
Fish
p455
(dp456
g4
g5
sg6
g29
sg8
I3
sg9
V\u30a6\u30b0\u30a4
p457
sg11
(ifish
Location
p458
(dp459
g14
(dp460
g16
g17
((ltRp461
sg20
g17
((ltRp462
ssbsg23
S'ugui'
p463
sg25
g38
sba(ifish
Fish
p464
(dp465
g4
g5
sg6
g29
sg8
I3
sg9
V\u30a6\u30ad\u30b4\u30ea
p466
sg11
(ifish
Location
p467
(dp468
g14
(dp469
g16
g17
((ltRp470
sg20
g17
((ltRp471
ssbsg23
S'ukigori'
p472
sg25
g38
sba(ifish
Fish
p473
(dp474
g4
g5
sg6
g29
sg8
I3
sg9
V\u30a6\u30ca\u30ae
p475
sg11
(ifish
Location
p476
(dp477
g14
(dp478
g16
g17
((ltRp479
sg20
g17
((ltRp480
ssbsg23
S'unagi'
p481
sg25
g38
sba(ifish
Fish
p482
(dp483
g4
g5
sg6
g29
sg8
I3
sg9
V\u30a6\u30ed\u30cf\u30bc
p484
sg11
(ifish
Location
p485
(dp486
g14
(dp487
g16
g17
((ltRp488
sg20
g17
((ltRp489
ssbsg23
S'urohaze'
p490
sg25
g38
sba(ifish
Fish
p491
(dp492
g4
g5
sg6
g29
sg8
I3
sg9
V\u30e4\u30de\u30e1
p493
sg11
(ifish
Location
p494
(dp495
g14
(dp496
g16
g17
((ltRp497
sg20
g17
((ltRp498
ssbsg23
S'yamame'
p499
sg25
g38
sba.