(lp1
(ifish
Fish
p2
(dp3
S'latin'
p4
S'piscis maximus'
p5
sS'family'
p6
V\u9b5a\u79d1
p7
sS'image'
p8
S'static/low-res/ichiran/.jpg'
p9
sS'rarity'
p10
I4
sS'kana'
p11
V\u30a2\u30d9\u30cf\u30bc
p12
sS'link'
p13
S'sakana/'
p14
sS'location'
p15
(ifish
Location
p16
(dp17
S'_dict'
p18
(dp19
S'Takatsu'
p20
c__builtin__
set
p21
((lp22
I0
aI1
aI2
atRp23
sS'Masuda'
p24
g21
((lp25
I0
aI2
aI3
atRp26
ssbsS'romaji'
p27
S'abehaze'
p28
sS'genus'
p29
V\u9b5a\u65cf
p30
sba(ifish
Fish
p31
(dp32
g4
g5
sg6
g7
sg8
S'static/low-res/ichiran/.jpg'
p33
sg10
I3
sg11
V\u30a2\u30d6\u30e9\u30dc\u30c6
p34
sg13
g14
sg15
g16
sg27
S'aburabote'
p35
sg29
g30
sba(ifish
Fish
p36
(dp37
g4
g5
sg6
g7
sg8
S'static/low-res/ichiran/.jpg'
p38
sg10
I2
sg11
V\u30a2\u30ab\u30b6
p39
sg13
g14
sg15
g16
sg27
S'akaza'
p40
sg29
g30
sba(ifish
Fish
p41
(dp42
g4
g5
sg6
g7
sg8
S'static/low-res/ichiran/amago.jpg'
p43
sg10
I3
sg11
V\u30a2\u30de\u30b4
p44
sg13
S'sakana/amago'
p45
sg15
g16
sg27
S'amago'
p46
sg29
g30
sba(ifish
Fish
p47
(dp48
g4
g5
sg6
g7
sg8
S'static/low-res/ichiran/ayu.jpg'
p49
sg10
I3
sg11
V\u30a2\u30e6
p50
sg13
S'sakana/ayu'
p51
sg15
g16
sg27
S'ayu'
p52
sg29
g30
sba(ifish
Fish
p53
(dp54
g4
g5
sg6
g7
sg8
S'static/low-res/ichiran/ayukake.jpg'
p55
sg10
I3
sg11
V\u30a2\u30e6\u30ab\u30b1
p56
sg13
S'sakana/ayukake'
p57
sg15
g16
sg27
S'ayukake'
p58
sg29
g30
sba(ifish
Fish
p59
(dp60
g4
g5
sg6
g7
sg8
S'static/low-res/ichiran/bora.jpg'
p61
sg10
I3
sg11
V\u30dc\u30e9
p62
sg13
S'sakana/bora'
p63
sg15
g16
sg27
S'bora'
p64
sg29
g30
sba(ifish
Fish
p65
(dp66
g4
g5
sg6
g7
sg8
S'static/low-res/ichiran/dojou.jpg'
p67
sg10
I3
sg11
V\u30c9\u30b8\u30e7\u30a6
p68
sg13
S'sakana/dojou'
p69
sg15
g16
sg27
S'dojou'
p70
sg29
g30
sba(ifish
Fish
p71
(dp72
g4
g5
sg6
g7
sg8
S'static/low-res/ichiran/donnko.jpg'
p73
sg10
I3
sg11
V\u30c9\u30f3\u30b3
p74
sg13
S'sakana/donnko'
p75
sg15
g16
sg27
S'donnko'
p76
sg29
g30
sba(ifish
Fish
p77
(dp78
g4
g5
sg6
g7
sg8
S'static/low-res/ichiran/gigi.jpg'
p79
sg10
I3
sg11
V\u30ae\u30ae
p80
sg13
S'sakana/gigi'
p81
sg15
g16
sg27
S'gigi'
p82
sg29
g30
sba(ifish
Fish
p83
(dp84
g4
g5
sg6
g7
sg8
S'static/low-res/ichiran/gogi.jpg'
p85
sg10
I3
sg11
V\u30b4\u30ae
p86
sg13
S'sakana/gogi'
p87
sg15
g16
sg27
S'gogi'
p88
sg29
g30
sba(ifish
Fish
p89
(dp90
g4
g5
sg6
g7
sg8
S'static/low-res/ichiran/gokurakuhaze.jpg'
p91
sg10
I3
sg11
V\u30b4\u30af\u30e9\u30af\u30cf\u30bc
p92
sg13
S'sakana/gokurakuhaze'
p93
sg15
g16
sg27
S'gokurakuhaze'
p94
sg29
g30
sba(ifish
Fish
p95
(dp96
g4
g5
sg6
g7
sg8
S'static/low-res/ichiran/himehaze.jpg'
p97
sg10
I3
sg11
V\u30d2\u30e1\u30cf\u30bc
p98
sg13
S'sakana/himehaze'
p99
sg15
g16
sg27
S'himehaze'
p100
sg29
g30
sba(ifish
Fish
p101
(dp102
g4
g5
sg6
g7
sg8
S'static/low-res/ichiran/hinahaze.jpg'
p103
sg10
I3
sg11
V\u30d2\u30ca\u30cf\u30bc
p104
sg13
S'sakana/hinahaze'
p105
sg15
g16
sg27
S'hinahaze'
p106
sg29
g30
sba(ifish
Fish
p107
(dp108
g4
g5
sg6
g7
sg8
S'static/low-res/ichiran/hirasuzuki.jpg'
p109
sg10
I3
sg11
V\u30d2\u30e9\u30b9\u30ba\u30ad
p110
sg13
S'sakana/hirasuzuki'
p111
sg15
g16
sg27
S'hirasuzuki'
p112
sg29
g30
sba(ifish
Fish
p113
(dp114
g4
g5
sg6
g7
sg8
S'static/low-res/ichiran/huna.jpg'
p115
sg10
I3
sg11
V\u30d5\u30ca
p116
sg13
S'sakana/huna'
p117
sg15
g16
sg27
S'huna'
p118
sg29
g30
sba(ifish
Fish
p119
(dp120
g4
g5
sg6
g7
sg8
S'static/low-res/ichiran/ishidojou.jpg'
p121
sg10
I3
sg11
V\u30a4\u30b7\u30c9\u30b8\u30e7\u30a6
p122
sg13
S'sakana/ishidojou'
p123
sg15
g16
sg27
S'ishidojou'
p124
sg29
g30
sba(ifish
Fish
p125
(dp126
g4
g5
sg6
g7
sg8
S'static/low-res/ichiran/ishidonko.jpg'
p127
sg10
I3
sg11
V\u30a4\u30b7\u30c9\u30f3\u30b3
p128
sg13
S'sakana/ishidonko'
p129
sg15
g16
sg27
S'ishidonko'
p130
sg29
g30
sba(ifish
Fish
p131
(dp132
g4
g5
sg6
g7
sg8
S'static/low-res/ichiran/itomoroko.jpg'
p133
sg10
I3
sg11
V\u30a4\u30c8\u30e2\u30ed\u30b3
p134
sg13
S'sakana/itomoroko'
p135
sg15
g16
sg27
S'itomoroko'
p136
sg29
g30
sba(ifish
Fish
p137
(dp138
g4
g5
sg6
g7
sg8
S'static/low-res/ichiran/kajika.jpg'
p139
sg10
I3
sg11
V\u30ab\u30b8\u30ab
p140
sg13
S'sakana/kajika'
p141
sg15
g16
sg27
S'kajika'
p142
sg29
g30
sba(ifish
Fish
p143
(dp144
g4
g5
sg6
g7
sg8
S'static/low-res/ichiran/kamatuka.jpg'
p145
sg10
I3
sg11
V\u30ab\u30de\u30c4\u30ab
p146
sg13
S'sakana/kamatuka'
p147
sg15
g16
sg27
S'kamatuka'
p148
sg29
g30
sba(ifish
Fish
p149
(dp150
g4
g5
sg6
g7
sg8
S'static/low-res/ichiran/kawaanago.jpg'
p151
sg10
I3
sg11
V\u30ab\u30ef\u30a2\u30ca\u30b4
p152
sg13
S'sakana/kawaanago'
p153
sg15
g16
sg27
S'kawaanago'
p154
sg29
g30
sba(ifish
Fish
p155
(dp156
g4
g5
sg6
g7
sg8
S'static/low-res/ichiran/kawamutu.jpg'
p157
sg10
I3
sg11
V\u30ab\u30ef\u30e0\u30c4
p158
sg13
S'sakana/kawamutu'
p159
sg15
g16
sg27
S'kawamutu'
p160
sg29
g30
sba(ifish
Fish
p161
(dp162
g4
g5
sg6
g7
sg8
S'static/low-res/ichiran/kawayoshinobori.jpg'
p163
sg10
I3
sg11
V\u30ab\u30ef\u30e8\u30b7\u30ce\u30dc\u30ea
p164
sg13
S'sakana/kawayoshinobori'
p165
sg15
g16
sg27
S'kawayoshinobori'
p166
sg29
g30
sba(ifish
Fish
p167
(dp168
g4
g5
sg6
g7
sg8
S'static/low-res/ichiran/koi.jpg'
p169
sg10
I3
sg11
V\u30b3\u30a4
p170
sg13
S'sakana/koi'
p171
sg15
g16
sg27
S'koi'
p172
sg29
g30
sba(ifish
Fish
p173
(dp174
g4
g5
sg6
g7
sg8
S'static/low-res/ichiran/kurodai.jpg'
p175
sg10
I3
sg11
V\u30af\u30ed\u30c0\u30a4
p176
sg13
S'sakana/kurodai'
p177
sg15
g16
sg27
S'kurodai'
p178
sg29
g30
sba(ifish
Fish
p179
(dp180
g4
g5
sg6
g7
sg8
S'static/low-res/ichiran/magoti.jpg'
p181
sg10
I3
sg11
V\u30de\u30b4\u30c1
p182
sg13
S'sakana/magoti'
p183
sg15
g16
sg27
S'magoti'
p184
sg29
g30
sba(ifish
Fish
p185
(dp186
g4
g5
sg6
g7
sg8
S'static/low-res/ichiran/mahaze.jpg'
p187
sg10
I3
sg11
V\u30de\u30cf\u30bc
p188
sg13
S'sakana/mahaze'
p189
sg15
g16
sg27
S'mahaze'
p190
sg29
g30
sba(ifish
Fish
p191
(dp192
g4
g5
sg6
g7
sg8
S'static/low-res/ichiran/medaka.jpg'
p193
sg10
I3
sg11
V\u30e1\u30c0\u30ab
p194
sg13
S'sakana/medaka'
p195
sg15
g16
sg27
S'medaka'
p196
sg29
g30
sba(ifish
Fish
p197
(dp198
g4
g5
sg6
g7
sg8
S'static/low-res/ichiran/mimizuhaze.jpg'
p199
sg10
I3
sg11
V\u30df\u30df\u30ba\u30cf\u30bc
p200
sg13
S'sakana/mimizuhaze'
p201
sg15
g16
sg27
S'mimizuhaze'
p202
sg29
g30
sba(ifish
Fish
p203
(dp204
g4
g5
sg6
g7
sg8
S'static/low-res/ichiran/mugituku.jpg'
p205
sg10
I3
sg11
V\u30e0\u30ae\u30c4\u30af
p206
sg13
S'sakana/mugituku'
p207
sg15
g16
sg27
S'mugituku'
p208
sg29
g30
sba(ifish
Fish
p209
(dp210
g4
g5
sg6
g7
sg8
S'static/low-res/ichiran/namazu.jpg'
p211
sg10
I3
sg11
V\u30ca\u30de\u30ba
p212
sg13
S'sakana/namazu'
p213
sg15
g16
sg27
S'namazu'
p214
sg29
g30
sba(ifish
Fish
p215
(dp216
g4
g5
sg6
g7
sg8
S'static/low-res/ichiran/numatitibu.jpg'
p217
sg10
I3
sg11
V\u30cc\u30de\u30c1\u30c1\u30d6
p218
sg13
S'sakana/numatitibu'
p219
sg15
g16
sg27
S'numatitibu'
p220
sg29
g30
sba(ifish
Fish
p221
(dp222
g4
g5
sg6
g7
sg8
S'static/low-res/ichiran/oikawa.jpg'
p223
sg10
I3
sg11
V\u30aa\u30a4\u30ab\u30ef
p224
sg13
S'sakana/oikawa'
p225
sg15
g16
sg27
S'oikawa'
p226
sg29
g30
sba(ifish
Fish
p227
(dp228
g4
g5
sg6
g7
sg8
S'static/low-res/ichiran/ooyosinobori.jpg'
p229
sg10
I3
sg11
V\u30aa\u30aa\u30e8\u30b7\u30ce\u30dc\u30ea
p230
sg13
S'sakana/ooyosinobori'
p231
sg15
g16
sg27
S'ooyosinobori'
p232
sg29
g30
sba(ifish
Fish
p233
(dp234
g4
g5
sg6
g7
sg8
S'static/low-res/ichiran/oyanirami.jpg'
p235
sg10
I3
sg11
V\u30aa\u30e4\u30cb\u30e9\u30df
p236
sg13
S'sakana/oyanirami'
p237
sg15
g16
sg27
S'oyanirami'
p238
sg29
g30
sba(ifish
Fish
p239
(dp240
g4
g5
sg6
g7
sg8
S'static/low-res/ichiran/ribbinngo.jpg'
p241
sg10
I3
sg11
V\u30ea\u30c3\u30d3\u30f3\u30b4
p242
sg13
S'sakana/ribbinngo'
p243
sg15
g16
sg27
S'ribbinngo'
p244
sg29
g30
sba(ifish
Fish
p245
(dp246
g4
g5
sg6
g7
sg8
S'static/low-res/ichiran/sakuramasu.jpg'
p247
sg10
I3
sg11
V\u30b5\u30af\u30e9\u30de\u30b9
p248
sg13
S'sakana/sakuramasu'
p249
sg15
g16
sg27
S'sakuramasu'
p250
sg29
g30
sba(ifish
Fish
p251
(dp252
g4
g5
sg6
g7
sg8
S'static/low-res/ichiran/shimadojou.jpg'
p253
sg10
I3
sg11
V\u30b7\u30de\u30c9\u30b8\u30e7\u30a6
p254
sg13
S'sakana/shimadojou'
p255
sg15
g16
sg27
S'shimadojou'
p256
sg29
g30
sba(ifish
Fish
p257
(dp258
g4
g5
sg6
g7
sg8
S'static/low-res/ichiran/shimaisaki.jpg'
p259
sg10
I3
sg11
V\u30b7\u30de\u30a4\u30b5\u30ad
p260
sg13
S'sakana/shimaisaki'
p261
sg15
g16
sg27
S'shimaisaki'
p262
sg29
g30
sba(ifish
Fish
p263
(dp264
g4
g5
sg6
g7
sg8
S'static/low-res/ichiran/shirogisu.jpg'
p265
sg10
I3
sg11
V\u30b7\u30ed\u30ae\u30b9
p266
sg13
S'sakana/shirogisu'
p267
sg15
g16
sg27
S'shirogisu'
p268
sg29
g30
sba(ifish
Fish
p269
(dp270
g4
g5
sg6
g7
sg8
S'static/low-res/ichiran/shirouo.jpg'
p271
sg10
I3
sg11
V\u30b7\u30ed\u30a6\u30aa
p272
sg13
S'sakana/shirouo'
p273
sg15
g16
sg27
S'shirouo'
p274
sg29
g30
sba(ifish
Fish
p275
(dp276
g4
g5
sg6
g7
sg8
S'static/low-res/ichiran/sumiukigori.jpg'
p277
sg10
I3
sg11
V\u30b9\u30df\u30a6\u30ad\u30b4\u30ea
p278
sg13
S'sakana/sumiukigori'
p279
sg15
g16
sg27
S'sumiukigori'
p280
sg29
g30
sba(ifish
Fish
p281
(dp282
g4
g5
sg6
g7
sg8
S'static/low-res/ichiran/sunayatume.jpg'
p283
sg10
I3
sg11
V\u30b9\u30ca\u30e4\u30c4\u30e1
p284
sg13
S'sakana/sunayatume'
p285
sg15
g16
sg27
S'sunayatume'
p286
sg29
g30
sba(ifish
Fish
p287
(dp288
g4
g5
sg6
g7
sg8
S'static/low-res/ichiran/suzuki.jpg'
p289
sg10
I3
sg11
V\u30b9\u30ba\u30ad
p290
sg13
S'sakana/suzuki'
p291
sg15
g16
sg27
S'suzuki'
p292
sg29
g30
sba(ifish
Fish
p293
(dp294
g4
g5
sg6
g7
sg8
S'static/low-res/ichiran/tairikubaratanago.jpg'
p295
sg10
I3
sg11
V\u30bf\u30a4\u30ea\u30af\u30d0\u30e9\u30bf\u30ca\u30b4
p296
sg13
S'sakana/tairikubaratanago'
p297
sg15
g16
sg27
S'tairikubaratanago'
p298
sg29
g30
sba(ifish
Fish
p299
(dp300
g4
g5
sg6
g7
sg8
S'static/low-res/ichiran/titibu.jpg'
p301
sg10
I3
sg11
V\u30c1\u30c1\u30d6
p302
sg13
S'sakana/titibu'
p303
sg15
g16
sg27
S'titibu'
p304
sg29
g30
sba(ifish
Fish
p305
(dp306
g4
g5
sg6
g7
sg8
S'static/low-res/ichiran/touyoshinobori.jpg'
p307
sg10
I3
sg11
V\u30c8\u30a6\u30e8\u30b7\u30ce\u30dc\u30ea
p308
sg13
S'sakana/touyoshinobori'
p309
sg15
g16
sg27
S'touyoshinobori'
p310
sg29
g30
sba(ifish
Fish
p311
(dp312
g4
g5
sg6
g7
sg8
S'static/low-res/ichiran/ugui.jpg'
p313
sg10
I3
sg11
V\u30a6\u30b0\u30a4
p314
sg13
S'sakana/ugui'
p315
sg15
g16
sg27
S'ugui'
p316
sg29
g30
sba(ifish
Fish
p317
(dp318
g4
g5
sg6
g7
sg8
S'static/low-res/ichiran/ukigori.jpg'
p319
sg10
I3
sg11
V\u30a6\u30ad\u30b4\u30ea
p320
sg13
S'sakana/ukigori'
p321
sg15
g16
sg27
S'ukigori'
p322
sg29
g30
sba(ifish
Fish
p323
(dp324
g4
g5
sg6
g7
sg8
S'static/low-res/ichiran/unagi.jpg'
p325
sg10
I3
sg11
V\u30a6\u30ca\u30ae
p326
sg13
S'sakana/unagi'
p327
sg15
g16
sg27
S'unagi'
p328
sg29
g30
sba(ifish
Fish
p329
(dp330
g4
g5
sg6
g7
sg8
S'static/low-res/ichiran/urohaze.jpg'
p331
sg10
I3
sg11
V\u30a6\u30ed\u30cf\u30bc
p332
sg13
S'sakana/urohaze'
p333
sg15
g16
sg27
S'urohaze'
p334
sg29
g30
sba(ifish
Fish
p335
(dp336
g4
g5
sg6
g7
sg8
S'static/low-res/ichiran/yamame.jpg'
p337
sg10
I3
sg11
V\u30e4\u30de\u30e1
p338
sg13
S'sakana/yamame'
p339
sg15
g16
sg27
S'yamame'
p340
sg29
g30
sba.