(lp1
(ifish
Fish
p2
(dp3
S'latin'
p4
S'piscis maximus'
p5
sS'family'
p6
V\u9b5a\u79d1
p7
sS'rarity'
p8
I4
sS'kana'
p9
V\u30a2\u30d9\u30cf\u30bc
p10
sS'location'
p11
(ifish
Location
p12
(dp13
S'_dict'
p14
(dp15
S'Takatsu'
p16
c__builtin__
set
p17
((lp18
I0
aI1
aI2
atRp19
sS'Masuda'
p20
g17
((lp21
I2
aI3
atRp22
ssbsS'romaji'
p23
S'abehaze'
p24
sS'genus'
p25
V\u9b5a\u65cf
p26
sba(ifish
Fish
p27
(dp28
g4
g5
sg6
g7
sg8
I3
sg9
V\u30a2\u30d6\u30e9\u30dc\u30c6
p29
sg11
(ifish
Location
p30
(dp31
g14
(dp32
g16
g17
((lp33
I0
atRp34
sg20
g17
((ltRp35
ssbsg23
S'aburabote'
p36
sg25
g26
sba(ifish
Fish
p37
(dp38
g4
g5
sg6
g7
sg8
I2
sg9
V\u30a2\u30ab\u30b6
p39
sg11
(ifish
Location
p40
(dp41
g14
(dp42
g16
g17
((lp43
I0
atRp44
sg20
g17
((lp45
I0
atRp46
ssbsg23
S'akaza'
p47
sg25
g26
sba(ifish
Fish
p48
(dp49
g4
g5
sg6
g7
sg8
I3
sg9
V\u30a2\u30de\u30b4
p50
sg11
(ifish
Location
p51
(dp52
g14
(dp53
g16
g17
((ltRp54
sg20
g17
((ltRp55
ssbsg23
S'amago'
p56
sg25
g26
sba(ifish
Fish
p57
(dp58
g4
g5
sg6
g7
sg8
I3
sg9
V\u30a2\u30e6
p59
sg11
(ifish
Location
p60
(dp61
g14
(dp62
g16
g17
((ltRp63
sg20
g17
((ltRp64
ssbsg23
S'ayu'
p65
sg25
g26
sba(ifish
Fish
p66
(dp67
g4
g5
sg6
g7
sg8
I3
sg9
V\u30a2\u30e6\u30ab\u30b1
p68
sg11
(ifish
Location
p69
(dp70
g14
(dp71
g16
g17
((ltRp72
sg20
g17
((ltRp73
ssbsg23
S'ayukake'
p74
sg25
g26
sba(ifish
Fish
p75
(dp76
g4
g5
sg6
g7
sg8
I3
sg9
V\u30dc\u30e9
p77
sg11
(ifish
Location
p78
(dp79
g14
(dp80
g16
g17
((ltRp81
sg20
g17
((ltRp82
ssbsg23
S'bora'
p83
sg25
g26
sba(ifish
Fish
p84
(dp85
g4
g5
sg6
g7
sg8
I3
sg9
V\u30c9\u30b8\u30e7\u30a6
p86
sg11
(ifish
Location
p87
(dp88
g14
(dp89
g16
g17
((ltRp90
sg20
g17
((ltRp91
ssbsg23
S'dojou'
p92
sg25
g26
sba(ifish
Fish
p93
(dp94
g4
g5
sg6
g7
sg8
I3
sg9
V\u30c9\u30f3\u30b3
p95
sg11
(ifish
Location
p96
(dp97
g14
(dp98
g16
g17
((ltRp99
sg20
g17
((ltRp100
ssbsg23
S'donnko'
p101
sg25
g26
sba(ifish
Fish
p102
(dp103
g4
g5
sg6
g7
sg8
I3
sg9
V\u30ae\u30ae
p104
sg11
(ifish
Location
p105
(dp106
g14
(dp107
g16
g17
((ltRp108
sg20
g17
((ltRp109
ssbsg23
S'gigi'
p110
sg25
g26
sba(ifish
Fish
p111
(dp112
g4
g5
sg6
g7
sg8
I3
sg9
V\u30b4\u30ae
p113
sg11
(ifish
Location
p114
(dp115
g14
(dp116
g16
g17
((ltRp117
sg20
g17
((ltRp118
ssbsg23
S'gogi'
p119
sg25
g26
sba(ifish
Fish
p120
(dp121
g4
g5
sg6
g7
sg8
I3
sg9
V\u30b4\u30af\u30e9\u30af\u30cf\u30bc
p122
sg11
(ifish
Location
p123
(dp124
g14
(dp125
g16
g17
((ltRp126
sg20
g17
((ltRp127
ssbsg23
S'gokurakuhaze'
p128
sg25
g26
sba(ifish
Fish
p129
(dp130
g4
g5
sg6
g7
sg8
I3
sg9
V\u30d2\u30e1\u30cf\u30bc
p131
sg11
(ifish
Location
p132
(dp133
g14
(dp134
g16
g17
((ltRp135
sg20
g17
((ltRp136
ssbsg23
S'himehaze'
p137
sg25
g26
sba(ifish
Fish
p138
(dp139
g4
g5
sg6
g7
sg8
I3
sg9
V\u30d2\u30ca\u30cf\u30bc
p140
sg11
(ifish
Location
p141
(dp142
g14
(dp143
g16
g17
((ltRp144
sg20
g17
((ltRp145
ssbsg23
S'hinahaze'
p146
sg25
g26
sba(ifish
Fish
p147
(dp148
g4
g5
sg6
g7
sg8
I3
sg9
V\u30d2\u30e9\u30b9\u30ba\u30ad
p149
sg11
(ifish
Location
p150
(dp151
g14
(dp152
g16
g17
((ltRp153
sg20
g17
((ltRp154
ssbsg23
S'hirasuzuki'
p155
sg25
g26
sba(ifish
Fish
p156
(dp157
g4
g5
sg6
g7
sg8
I3
sg9
V\u30d5\u30ca
p158
sg11
(ifish
Location
p159
(dp160
g14
(dp161
g16
g17
((ltRp162
sg20
g17
((ltRp163
ssbsg23
S'huna'
p164
sg25
g26
sba(ifish
Fish
p165
(dp166
g4
g5
sg6
g7
sg8
I3
sg9
V\u30a4\u30b7\u30c9\u30b8\u30e7\u30a6
p167
sg11
(ifish
Location
p168
(dp169
g14
(dp170
g16
g17
((ltRp171
sg20
g17
((ltRp172
ssbsg23
S'ishidojou'
p173
sg25
g26
sba(ifish
Fish
p174
(dp175
g4
g5
sg6
g7
sg8
I3
sg9
V\u30a4\u30b7\u30c9\u30f3\u30b3
p176
sg11
(ifish
Location
p177
(dp178
g14
(dp179
g16
g17
((ltRp180
sg20
g17
((ltRp181
ssbsg23
S'ishidonko'
p182
sg25
g26
sba(ifish
Fish
p183
(dp184
g4
g5
sg6
g7
sg8
I3
sg9
V\u30a4\u30c8\u30e2\u30ed\u30b3
p185
sg11
(ifish
Location
p186
(dp187
g14
(dp188
g16
g17
((ltRp189
sg20
g17
((ltRp190
ssbsg23
S'itomoroko'
p191
sg25
g26
sba(ifish
Fish
p192
(dp193
g4
g5
sg6
g7
sg8
I3
sg9
V\u30ab\u30b8\u30ab
p194
sg11
(ifish
Location
p195
(dp196
g14
(dp197
g16
g17
((ltRp198
sg20
g17
((ltRp199
ssbsg23
S'kajika'
p200
sg25
g26
sba(ifish
Fish
p201
(dp202
g4
g5
sg6
g7
sg8
I3
sg9
V\u30ab\u30de\u30c4\u30ab
p203
sg11
(ifish
Location
p204
(dp205
g14
(dp206
g16
g17
((ltRp207
sg20
g17
((ltRp208
ssbsg23
S'kamatuka'
p209
sg25
g26
sba(ifish
Fish
p210
(dp211
g4
g5
sg6
g7
sg8
I3
sg9
V\u30ab\u30ef\u30a2\u30ca\u30b4
p212
sg11
(ifish
Location
p213
(dp214
g14
(dp215
g16
g17
((ltRp216
sg20
g17
((ltRp217
ssbsg23
S'kawaanago'
p218
sg25
g26
sba(ifish
Fish
p219
(dp220
g4
g5
sg6
g7
sg8
I3
sg9
V\u30ab\u30ef\u30e0\u30c4
p221
sg11
(ifish
Location
p222
(dp223
g14
(dp224
g16
g17
((ltRp225
sg20
g17
((ltRp226
ssbsg23
S'kawamutu'
p227
sg25
g26
sba(ifish
Fish
p228
(dp229
g4
g5
sg6
g7
sg8
I3
sg9
V\u30ab\u30ef\u30e8\u30b7\u30ce\u30dc\u30ea
p230
sg11
(ifish
Location
p231
(dp232
g14
(dp233
g16
g17
((ltRp234
sg20
g17
((ltRp235
ssbsg23
S'kawayoshinobori'
p236
sg25
g26
sba(ifish
Fish
p237
(dp238
g4
g5
sg6
g7
sg8
I3
sg9
V\u30b3\u30a4
p239
sg11
(ifish
Location
p240
(dp241
g14
(dp242
g16
g17
((ltRp243
sg20
g17
((ltRp244
ssbsg23
S'koi'
p245
sg25
g26
sba(ifish
Fish
p246
(dp247
g4
g5
sg6
g7
sg8
I3
sg9
V\u30af\u30ed\u30c0\u30a4
p248
sg11
(ifish
Location
p249
(dp250
g14
(dp251
g16
g17
((ltRp252
sg20
g17
((ltRp253
ssbsg23
S'kurodai'
p254
sg25
g26
sba(ifish
Fish
p255
(dp256
g4
g5
sg6
g7
sg8
I3
sg9
V\u30de\u30b4\u30c1
p257
sg11
(ifish
Location
p258
(dp259
g14
(dp260
g16
g17
((ltRp261
sg20
g17
((ltRp262
ssbsg23
S'magoti'
p263
sg25
g26
sba(ifish
Fish
p264
(dp265
g4
g5
sg6
g7
sg8
I3
sg9
V\u30de\u30cf\u30bc
p266
sg11
(ifish
Location
p267
(dp268
g14
(dp269
g16
g17
((ltRp270
sg20
g17
((ltRp271
ssbsg23
S'mahaze'
p272
sg25
g26
sba(ifish
Fish
p273
(dp274
g4
g5
sg6
g7
sg8
I3
sg9
V\u30e1\u30c0\u30ab
p275
sg11
(ifish
Location
p276
(dp277
g14
(dp278
g16
g17
((ltRp279
sg20
g17
((ltRp280
ssbsg23
S'medaka'
p281
sg25
g26
sba(ifish
Fish
p282
(dp283
g4
g5
sg6
g7
sg8
I3
sg9
V\u30df\u30df\u30ba\u30cf\u30bc
p284
sg11
(ifish
Location
p285
(dp286
g14
(dp287
g16
g17
((ltRp288
sg20
g17
((ltRp289
ssbsg23
S'mimizuhaze'
p290
sg25
g26
sba(ifish
Fish
p291
(dp292
g4
g5
sg6
g7
sg8
I3
sg9
V\u30e0\u30ae\u30c4\u30af
p293
sg11
(ifish
Location
p294
(dp295
g14
(dp296
g16
g17
((ltRp297
sg20
g17
((ltRp298
ssbsg23
S'mugituku'
p299
sg25
g26
sba(ifish
Fish
p300
(dp301
g4
g5
sg6
g7
sg8
I3
sg9
V\u30ca\u30de\u30ba
p302
sg11
(ifish
Location
p303
(dp304
g14
(dp305
g16
g17
((ltRp306
sg20
g17
((ltRp307
ssbsg23
S'namazu'
p308
sg25
g26
sba(ifish
Fish
p309
(dp310
g4
g5
sg6
g7
sg8
I3
sg9
V\u30cc\u30de\u30c1\u30c1\u30d6
p311
sg11
(ifish
Location
p312
(dp313
g14
(dp314
g16
g17
((ltRp315
sg20
g17
((ltRp316
ssbsg23
S'numatitibu'
p317
sg25
g26
sba(ifish
Fish
p318
(dp319
g4
g5
sg6
g7
sg8
I3
sg9
V\u30aa\u30a4\u30ab\u30ef
p320
sg11
(ifish
Location
p321
(dp322
g14
(dp323
g16
g17
((ltRp324
sg20
g17
((ltRp325
ssbsg23
S'oikawa'
p326
sg25
g26
sba(ifish
Fish
p327
(dp328
g4
g5
sg6
g7
sg8
I3
sg9
V\u30aa\u30aa\u30e8\u30b7\u30ce\u30dc\u30ea
p329
sg11
(ifish
Location
p330
(dp331
g14
(dp332
g16
g17
((ltRp333
sg20
g17
((ltRp334
ssbsg23
S'ooyosinobori'
p335
sg25
g26
sba(ifish
Fish
p336
(dp337
g4
g5
sg6
g7
sg8
I3
sg9
V\u30aa\u30e4\u30cb\u30e9\u30df
p338
sg11
(ifish
Location
p339
(dp340
g14
(dp341
g16
g17
((ltRp342
sg20
g17
((ltRp343
ssbsg23
S'oyanirami'
p344
sg25
g26
sba(ifish
Fish
p345
(dp346
g4
g5
sg6
g7
sg8
I3
sg9
V\u30ea\u30c3\u30d3\u30f3\u30b4
p347
sg11
(ifish
Location
p348
(dp349
g14
(dp350
g16
g17
((ltRp351
sg20
g17
((ltRp352
ssbsg23
S'ribbinngo'
p353
sg25
g26
sba(ifish
Fish
p354
(dp355
g4
g5
sg6
g7
sg8
I3
sg9
V\u30b5\u30af\u30e9\u30de\u30b9
p356
sg11
(ifish
Location
p357
(dp358
g14
(dp359
g16
g17
((ltRp360
sg20
g17
((ltRp361
ssbsg23
S'sakuramasu'
p362
sg25
g26
sba(ifish
Fish
p363
(dp364
g4
g5
sg6
g7
sg8
I3
sg9
V\u30b7\u30de\u30c9\u30b8\u30e7\u30a6
p365
sg11
(ifish
Location
p366
(dp367
g14
(dp368
g16
g17
((ltRp369
sg20
g17
((ltRp370
ssbsg23
S'shimadojou'
p371
sg25
g26
sba(ifish
Fish
p372
(dp373
g4
g5
sg6
g7
sg8
I3
sg9
V\u30b7\u30de\u30a4\u30b5\u30ad
p374
sg11
(ifish
Location
p375
(dp376
g14
(dp377
g16
g17
((ltRp378
sg20
g17
((ltRp379
ssbsg23
S'shimaisaki'
p380
sg25
g26
sba(ifish
Fish
p381
(dp382
g4
g5
sg6
g7
sg8
I3
sg9
V\u30b7\u30ed\u30ae\u30b9
p383
sg11
(ifish
Location
p384
(dp385
g14
(dp386
g16
g17
((ltRp387
sg20
g17
((ltRp388
ssbsg23
S'shirogisu'
p389
sg25
g26
sba(ifish
Fish
p390
(dp391
g4
g5
sg6
g7
sg8
I3
sg9
V\u30b7\u30ed\u30a6\u30aa
p392
sg11
(ifish
Location
p393
(dp394
g14
(dp395
g16
g17
((ltRp396
sg20
g17
((ltRp397
ssbsg23
S'shirouo'
p398
sg25
g26
sba(ifish
Fish
p399
(dp400
g4
g5
sg6
g7
sg8
I3
sg9
V\u30b9\u30df\u30a6\u30ad\u30b4\u30ea
p401
sg11
(ifish
Location
p402
(dp403
g14
(dp404
g16
g17
((ltRp405
sg20
g17
((ltRp406
ssbsg23
S'sumiukigori'
p407
sg25
g26
sba(ifish
Fish
p408
(dp409
g4
g5
sg6
g7
sg8
I3
sg9
V\u30b9\u30ca\u30e4\u30c4\u30e1
p410
sg11
(ifish
Location
p411
(dp412
g14
(dp413
g16
g17
((ltRp414
sg20
g17
((ltRp415
ssbsg23
S'sunayatume'
p416
sg25
g26
sba(ifish
Fish
p417
(dp418
g4
g5
sg6
g7
sg8
I3
sg9
V\u30b9\u30ba\u30ad
p419
sg11
(ifish
Location
p420
(dp421
g14
(dp422
g16
g17
((ltRp423
sg20
g17
((ltRp424
ssbsg23
S'suzuki'
p425
sg25
g26
sba(ifish
Fish
p426
(dp427
g4
g5
sg6
g7
sg8
I3
sg9
V\u30bf\u30a4\u30ea\u30af\u30d0\u30e9\u30bf\u30ca\u30b4
p428
sg11
(ifish
Location
p429
(dp430
g14
(dp431
g16
g17
((ltRp432
sg20
g17
((ltRp433
ssbsg23
S'tairikubaratanago'
p434
sg25
g26
sba(ifish
Fish
p435
(dp436
g4
g5
sg6
g7
sg8
I3
sg9
V\u30c1\u30c1\u30d6
p437
sg11
(ifish
Location
p438
(dp439
g14
(dp440
g16
g17
((ltRp441
sg20
g17
((ltRp442
ssbsg23
S'titibu'
p443
sg25
g26
sba(ifish
Fish
p444
(dp445
g4
g5
sg6
g7
sg8
I3
sg9
V\u30c8\u30a6\u30e8\u30b7\u30ce\u30dc\u30ea
p446
sg11
(ifish
Location
p447
(dp448
g14
(dp449
g16
g17
((ltRp450
sg20
g17
((ltRp451
ssbsg23
S'touyoshinobori'
p452
sg25
g26
sba(ifish
Fish
p453
(dp454
g4
g5
sg6
g7
sg8
I3
sg9
V\u30a6\u30b0\u30a4
p455
sg11
(ifish
Location
p456
(dp457
g14
(dp458
g16
g17
((ltRp459
sg20
g17
((ltRp460
ssbsg23
S'ugui'
p461
sg25
g26
sba(ifish
Fish
p462
(dp463
g4
g5
sg6
g7
sg8
I3
sg9
V\u30a6\u30ad\u30b4\u30ea
p464
sg11
(ifish
Location
p465
(dp466
g14
(dp467
g16
g17
((ltRp468
sg20
g17
((ltRp469
ssbsg23
S'ukigori'
p470
sg25
g26
sba(ifish
Fish
p471
(dp472
g4
g5
sg6
g7
sg8
I3
sg9
V\u30a6\u30ca\u30ae
p473
sg11
(ifish
Location
p474
(dp475
g14
(dp476
g16
g17
((ltRp477
sg20
g17
((ltRp478
ssbsg23
S'unagi'
p479
sg25
g26
sba(ifish
Fish
p480
(dp481
g4
g5
sg6
g7
sg8
I3
sg9
V\u30a6\u30ed\u30cf\u30bc
p482
sg11
(ifish
Location
p483
(dp484
g14
(dp485
g16
g17
((ltRp486
sg20
g17
((ltRp487
ssbsg23
S'urohaze'
p488
sg25
g26
sba(ifish
Fish
p489
(dp490
g4
g5
sg6
g7
sg8
I3
sg9
V\u30e4\u30de\u30e1
p491
sg11
(ifish
Location
p492
(dp493
g14
(dp494
g16
g17
((ltRp495
sg20
g17
((ltRp496
ssbsg23
S'yamame'
p497
sg25
g26
sba.