(lp1
(ifish
Fish
p2
(dp3
S'latin'
p4
S'piscis maximus'
p5
sS'family'
p6
V\u9b5a\u79d1
p7
sS'rarity'
p8
I4
sS'kana'
p9
V\u30a2\u30d9\u30cf\u30bc
p10
sS'location'
p11
(ifish
Location
p12
(dp13
S'_dict'
p14
(dp15
S'Takatsu'
p16
c__builtin__
set
p17
((lp18
I0
aI1
aI2
atRp19
sS'Masuda'
p20
g17
((lp21
I0
aI2
aI3
atRp22
ssbsS'romaji'
p23
S'abehaze'
p24
sS'genus'
p25
V\u9b5a\u65cf
p26
sba(ifish
Fish
p27
(dp28
g4
g5
sg6
g7
sg8
I3
sg9
V\u30a2\u30d6\u30e9\u30dc\u30c6
p29
sg11
g12
sg23
S'aburabote'
p30
sg25
g26
sba(ifish
Fish
p31
(dp32
g4
g5
sg6
g7
sg8
I2
sg9
V\u30a2\u30ab\u30b6
p33
sg11
g12
sg23
S'akaza'
p34
sg25
g26
sba(ifish
Fish
p35
(dp36
g4
g5
sg6
g7
sg8
I3
sg9
V\u30a2\u30de\u30b4
p37
sg11
g12
sg23
S'amago'
p38
sg25
g26
sba(ifish
Fish
p39
(dp40
g4
g5
sg6
g7
sg8
I3
sg9
V\u30a2\u30e6
p41
sg11
g12
sg23
S'ayu'
p42
sg25
g26
sba(ifish
Fish
p43
(dp44
g4
g5
sg6
g7
sg8
I3
sg9
V\u30a2\u30e6\u30ab\u30b1
p45
sg11
g12
sg23
S'ayukake'
p46
sg25
g26
sba(ifish
Fish
p47
(dp48
g4
g5
sg6
g7
sg8
I3
sg9
V\u30dc\u30e9
p49
sg11
g12
sg23
S'bora'
p50
sg25
g26
sba(ifish
Fish
p51
(dp52
g4
g5
sg6
g7
sg8
I3
sg9
V\u30c9\u30b8\u30e7\u30a6
p53
sg11
g12
sg23
S'dojou'
p54
sg25
g26
sba(ifish
Fish
p55
(dp56
g4
g5
sg6
g7
sg8
I3
sg9
V\u30c9\u30f3\u30b3
p57
sg11
g12
sg23
S'donnko'
p58
sg25
g26
sba(ifish
Fish
p59
(dp60
g4
g5
sg6
g7
sg8
I3
sg9
V\u30ae\u30ae
p61
sg11
g12
sg23
S'gigi'
p62
sg25
g26
sba(ifish
Fish
p63
(dp64
g4
g5
sg6
g7
sg8
I3
sg9
V\u30b4\u30ae
p65
sg11
g12
sg23
S'gogi'
p66
sg25
g26
sba(ifish
Fish
p67
(dp68
g4
g5
sg6
g7
sg8
I3
sg9
V\u30b4\u30af\u30e9\u30af\u30cf\u30bc
p69
sg11
g12
sg23
S'gokurakuhaze'
p70
sg25
g26
sba(ifish
Fish
p71
(dp72
g4
g5
sg6
g7
sg8
I3
sg9
V\u30d2\u30e1\u30cf\u30bc
p73
sg11
g12
sg23
S'himehaze'
p74
sg25
g26
sba(ifish
Fish
p75
(dp76
g4
g5
sg6
g7
sg8
I3
sg9
V\u30d2\u30ca\u30cf\u30bc
p77
sg11
g12
sg23
S'hinahaze'
p78
sg25
g26
sba(ifish
Fish
p79
(dp80
g4
g5
sg6
g7
sg8
I3
sg9
V\u30d2\u30e9\u30b9\u30ba\u30ad
p81
sg11
g12
sg23
S'hirasuzuki'
p82
sg25
g26
sba(ifish
Fish
p83
(dp84
g4
g5
sg6
g7
sg8
I3
sg9
V\u30d5\u30ca
p85
sg11
g12
sg23
S'huna'
p86
sg25
g26
sba(ifish
Fish
p87
(dp88
g4
g5
sg6
g7
sg8
I3
sg9
V\u30a4\u30b7\u30c9\u30b8\u30e7\u30a6
p89
sg11
g12
sg23
S'ishidojou'
p90
sg25
g26
sba(ifish
Fish
p91
(dp92
g4
g5
sg6
g7
sg8
I3
sg9
V\u30a4\u30b7\u30c9\u30f3\u30b3
p93
sg11
g12
sg23
S'ishidonko'
p94
sg25
g26
sba(ifish
Fish
p95
(dp96
g4
g5
sg6
g7
sg8
I3
sg9
V\u30a4\u30c8\u30e2\u30ed\u30b3
p97
sg11
g12
sg23
S'itomoroko'
p98
sg25
g26
sba(ifish
Fish
p99
(dp100
g4
g5
sg6
g7
sg8
I3
sg9
V\u30ab\u30b8\u30ab
p101
sg11
g12
sg23
S'kajika'
p102
sg25
g26
sba(ifish
Fish
p103
(dp104
g4
g5
sg6
g7
sg8
I3
sg9
V\u30ab\u30de\u30c4\u30ab
p105
sg11
g12
sg23
S'kamatuka'
p106
sg25
g26
sba(ifish
Fish
p107
(dp108
g4
g5
sg6
g7
sg8
I3
sg9
V\u30ab\u30ef\u30a2\u30ca\u30b4
p109
sg11
g12
sg23
S'kawaanago'
p110
sg25
g26
sba(ifish
Fish
p111
(dp112
g4
g5
sg6
g7
sg8
I3
sg9
V\u30ab\u30ef\u30e0\u30c4
p113
sg11
g12
sg23
S'kawamutu'
p114
sg25
g26
sba(ifish
Fish
p115
(dp116
g4
g5
sg6
g7
sg8
I3
sg9
V\u30ab\u30ef\u30e8\u30b7\u30ce\u30dc\u30ea
p117
sg11
g12
sg23
S'kawayoshinobori'
p118
sg25
g26
sba(ifish
Fish
p119
(dp120
g4
g5
sg6
g7
sg8
I3
sg9
V\u30b3\u30a4
p121
sg11
g12
sg23
S'koi'
p122
sg25
g26
sba(ifish
Fish
p123
(dp124
g4
g5
sg6
g7
sg8
I3
sg9
V\u30af\u30ed\u30c0\u30a4
p125
sg11
g12
sg23
S'kurodai'
p126
sg25
g26
sba(ifish
Fish
p127
(dp128
g4
g5
sg6
g7
sg8
I3
sg9
V\u30de\u30b4\u30c1
p129
sg11
g12
sg23
S'magoti'
p130
sg25
g26
sba(ifish
Fish
p131
(dp132
g4
g5
sg6
g7
sg8
I3
sg9
V\u30de\u30cf\u30bc
p133
sg11
g12
sg23
S'mahaze'
p134
sg25
g26
sba(ifish
Fish
p135
(dp136
g4
g5
sg6
g7
sg8
I3
sg9
V\u30e1\u30c0\u30ab
p137
sg11
g12
sg23
S'medaka'
p138
sg25
g26
sba(ifish
Fish
p139
(dp140
g4
g5
sg6
g7
sg8
I3
sg9
V\u30df\u30df\u30ba\u30cf\u30bc
p141
sg11
g12
sg23
S'mimizuhaze'
p142
sg25
g26
sba(ifish
Fish
p143
(dp144
g4
g5
sg6
g7
sg8
I3
sg9
V\u30e0\u30ae\u30c4\u30af
p145
sg11
g12
sg23
S'mugituku'
p146
sg25
g26
sba(ifish
Fish
p147
(dp148
g4
g5
sg6
g7
sg8
I3
sg9
V\u30ca\u30de\u30ba
p149
sg11
g12
sg23
S'namazu'
p150
sg25
g26
sba(ifish
Fish
p151
(dp152
g4
g5
sg6
g7
sg8
I3
sg9
V\u30cc\u30de\u30c1\u30c1\u30d6
p153
sg11
g12
sg23
S'numatitibu'
p154
sg25
g26
sba(ifish
Fish
p155
(dp156
g4
g5
sg6
g7
sg8
I3
sg9
V\u30aa\u30a4\u30ab\u30ef
p157
sg11
g12
sg23
S'oikawa'
p158
sg25
g26
sba(ifish
Fish
p159
(dp160
g4
g5
sg6
g7
sg8
I3
sg9
V\u30aa\u30aa\u30e8\u30b7\u30ce\u30dc\u30ea
p161
sg11
g12
sg23
S'ooyosinobori'
p162
sg25
g26
sba(ifish
Fish
p163
(dp164
g4
g5
sg6
g7
sg8
I3
sg9
V\u30aa\u30e4\u30cb\u30e9\u30df
p165
sg11
g12
sg23
S'oyanirami'
p166
sg25
g26
sba(ifish
Fish
p167
(dp168
g4
g5
sg6
g7
sg8
I3
sg9
V\u30ea\u30c3\u30d3\u30f3\u30b4
p169
sg11
g12
sg23
S'ribbinngo'
p170
sg25
g26
sba(ifish
Fish
p171
(dp172
g4
g5
sg6
g7
sg8
I3
sg9
V\u30b5\u30af\u30e9\u30de\u30b9
p173
sg11
g12
sg23
S'sakuramasu'
p174
sg25
g26
sba(ifish
Fish
p175
(dp176
g4
g5
sg6
g7
sg8
I3
sg9
V\u30b7\u30de\u30c9\u30b8\u30e7\u30a6
p177
sg11
g12
sg23
S'shimadojou'
p178
sg25
g26
sba(ifish
Fish
p179
(dp180
g4
g5
sg6
g7
sg8
I3
sg9
V\u30b7\u30de\u30a4\u30b5\u30ad
p181
sg11
g12
sg23
S'shimaisaki'
p182
sg25
g26
sba(ifish
Fish
p183
(dp184
g4
g5
sg6
g7
sg8
I3
sg9
V\u30b7\u30ed\u30ae\u30b9
p185
sg11
g12
sg23
S'shirogisu'
p186
sg25
g26
sba(ifish
Fish
p187
(dp188
g4
g5
sg6
g7
sg8
I3
sg9
V\u30b7\u30ed\u30a6\u30aa
p189
sg11
g12
sg23
S'shirouo'
p190
sg25
g26
sba(ifish
Fish
p191
(dp192
g4
g5
sg6
g7
sg8
I3
sg9
V\u30b9\u30df\u30a6\u30ad\u30b4\u30ea
p193
sg11
g12
sg23
S'sumiukigori'
p194
sg25
g26
sba(ifish
Fish
p195
(dp196
g4
g5
sg6
g7
sg8
I3
sg9
V\u30b9\u30ca\u30e4\u30c4\u30e1
p197
sg11
g12
sg23
S'sunayatume'
p198
sg25
g26
sba(ifish
Fish
p199
(dp200
g4
g5
sg6
g7
sg8
I3
sg9
V\u30b9\u30ba\u30ad
p201
sg11
g12
sg23
S'suzuki'
p202
sg25
g26
sba(ifish
Fish
p203
(dp204
g4
g5
sg6
g7
sg8
I3
sg9
V\u30bf\u30a4\u30ea\u30af\u30d0\u30e9\u30bf\u30ca\u30b4
p205
sg11
g12
sg23
S'tairikubaratanago'
p206
sg25
g26
sba(ifish
Fish
p207
(dp208
g4
g5
sg6
g7
sg8
I3
sg9
V\u30c1\u30c1\u30d6
p209
sg11
g12
sg23
S'titibu'
p210
sg25
g26
sba(ifish
Fish
p211
(dp212
g4
g5
sg6
g7
sg8
I3
sg9
V\u30c8\u30a6\u30e8\u30b7\u30ce\u30dc\u30ea
p213
sg11
g12
sg23
S'touyoshinobori'
p214
sg25
g26
sba(ifish
Fish
p215
(dp216
g4
g5
sg6
g7
sg8
I3
sg9
V\u30a6\u30b0\u30a4
p217
sg11
g12
sg23
S'ugui'
p218
sg25
g26
sba(ifish
Fish
p219
(dp220
g4
g5
sg6
g7
sg8
I3
sg9
V\u30a6\u30ad\u30b4\u30ea
p221
sg11
g12
sg23
S'ukigori'
p222
sg25
g26
sba(ifish
Fish
p223
(dp224
g4
g5
sg6
g7
sg8
I3
sg9
V\u30a6\u30ca\u30ae
p225
sg11
g12
sg23
S'unagi'
p226
sg25
g26
sba(ifish
Fish
p227
(dp228
g4
g5
sg6
g7
sg8
I3
sg9
V\u30a6\u30ed\u30cf\u30bc
p229
sg11
g12
sg23
S'urohaze'
p230
sg25
g26
sba(ifish
Fish
p231
(dp232
g4
g5
sg6
g7
sg8
I3
sg9
V\u30e4\u30de\u30e1
p233
sg11
g12
sg23
S'yamame'
p234
sg25
g26
sba.